

Microchip MPLAB XC8 Assembler V2.40 build 20220703182018 
                                                                                               Tue Apr 04 12:44:51 2023

Microchip MPLAB XC8 C Compiler v2.40 (Free license) build 20220703182018 Og1 
     1                           	processor	18F57Q43
     2                           	fnconf	rparam,??,?,0
     3                           	pagewidth 120
     4                           	opt	flic
     5                           	psect	mediumconst,global,reloc=2,class=MEDIUMCONST,delta=1,noexec
     6                           	psect	cinit,global,reloc=2,class=CODE,delta=1
     7                           	psect	bssCOMRAM,global,class=COMRAM,space=1,delta=1,lowdata,noexec
     8                           	psect	bssBANK5,global,class=BANK5,space=1,delta=1,lowdata,noexec
     9                           	psect	bssBANK6,global,class=BANK6,space=1,delta=1,lowdata,noexec
    10                           	psect	cstackBANK6,global,class=BANK6,space=1,delta=1,lowdata,noexec
    11                           	psect	cstackBANK5,global,class=BANK5,space=1,delta=1,lowdata,noexec
    12                           	psect	cstackCOMRAM,global,class=COMRAM,space=1,delta=1,lowdata,noexec
    13                           	psect	text0,global,reloc=2,class=CODE,delta=1
    14                           	psect	text1,global,reloc=2,class=CODE,delta=1
    15                           	psect	text2,global,reloc=2,class=CODE,delta=1
    16                           	psect	text3,global,reloc=2,class=CODE,delta=1
    17                           	psect	text4,global,reloc=2,class=CODE,delta=1
    18                           	psect	text5,global,reloc=2,class=CODE,delta=1
    19                           	psect	text6,global,reloc=2,class=CODE,delta=1,group=3
    20                           	psect	text7,global,reloc=2,class=CODE,delta=1,group=1
    21                           	psect	text8,global,reloc=2,class=CODE,delta=1,group=1
    22                           	psect	text9,global,reloc=2,class=CODE,delta=1,group=1
    23                           	psect	text10,global,reloc=2,class=CODE,delta=1,group=1
    24                           	psect	text11,global,reloc=2,class=CODE,delta=1,group=3
    25                           	psect	text12,global,reloc=2,class=CODE,delta=1,group=3
    26                           	psect	text13,global,reloc=2,class=CODE,delta=1
    27                           	psect	text14,global,reloc=2,class=CODE,delta=1
    28                           	psect	text15,global,reloc=2,class=CODE,delta=1
    29                           	psect	text16,global,reloc=2,class=CODE,delta=1,group=3
    30                           	psect	text17,global,reloc=2,class=CODE,delta=1,group=2
    31                           	psect	text18,global,reloc=2,class=CODE,delta=1,group=2
    32                           	psect	text19,global,reloc=2,class=CODE,delta=1
    33                           	psect	text20,global,reloc=2,class=CODE,delta=1
    34                           	psect	text21,global,reloc=2,class=CODE,delta=1
    35                           	psect	text22,global,reloc=2,class=CODE,delta=1
    36                           	psect	text23,global,reloc=2,class=CODE,delta=1
    37                           	psect	text24,global,reloc=2,class=CODE,delta=1
    38                           	psect	text25,global,reloc=2,class=CODE,delta=1
    39                           	psect	text26,global,reloc=2,class=CODE,delta=1
    40                           	psect	text27,global,reloc=2,class=CODE,delta=1
    41                           	psect	text28,global,reloc=2,class=CODE,delta=1
    42                           	psect	text29,global,reloc=2,class=CODE,delta=1
    43                           	psect	text30,global,reloc=2,class=CODE,delta=1
    44                           	psect	text31,global,reloc=2,class=CODE,delta=1
    45                           	psect	text32,global,reloc=2,class=CODE,delta=1
    46                           	psect	text33,global,reloc=2,class=CODE,delta=1,inline
    47                           	psect	text34,global,reloc=2,class=CODE,delta=1
    48                           	psect	text35,global,reloc=2,class=CODE,delta=1
    49                           	psect	text36,global,reloc=2,class=CODE,delta=1
    50                           	psect	text37,global,reloc=2,class=CODE,delta=1
    51                           	psect	text38,global,reloc=2,class=CODE,delta=1
    52                           	psect	text39,global,reloc=2,class=CODE,delta=1
    53                           	psect	text40,global,reloc=2,class=CODE,delta=1
    54                           	psect	text41,global,reloc=2,class=CODE,delta=1
    55                           	psect	text42,global,reloc=2,class=CODE,delta=1
    56                           	psect	text43,global,reloc=2,class=CODE,delta=1
    57                           	psect	text44,global,reloc=2,class=CODE,delta=1
    58                           	psect	text45,global,reloc=2,class=CODE,delta=1
    59                           	psect	text46,global,reloc=2,class=CODE,delta=1
    60                           	psect	text47,global,reloc=2,class=CODE,delta=1
    61                           	psect	text48,global,reloc=2,class=CODE,delta=1
    62                           	psect	text49,global,reloc=2,class=CODE,delta=1
    63                           	psect	text50,global,reloc=2,class=CODE,delta=1
    64                           	psect	text51,global,reloc=2,class=CODE,delta=1
    65                           	psect	text52,global,reloc=2,class=CODE,delta=1
    66                           	psect	text53,global,reloc=2,class=CODE,delta=1
    67                           	psect	text54,global,reloc=2,class=CODE,delta=1
    68                           	psect	text55,global,reloc=2,class=CODE,delta=1
    69                           	psect	text56,global,reloc=2,class=CODE,delta=1
    70                           	psect	text57,global,reloc=2,class=CODE,delta=1
    71                           	psect	text58,global,reloc=2,class=CODE,delta=1,inline
    72                           	psect	text59,global,reloc=2,class=CODE,delta=1
    73                           	psect	text60,global,reloc=2,class=CODE,delta=1
    74                           	psect	text61,global,reloc=2,class=CODE,delta=1
    75                           	psect	text62,global,reloc=2,class=CODE,delta=1
    76                           	psect	text63,global,reloc=2,class=CODE,delta=1
    77                           	psect	text64,global,reloc=2,class=CODE,delta=1
    78                           	psect	text65,global,reloc=2,class=CODE,delta=1
    79                           	psect	text66,global,reloc=2,class=CODE,delta=1
    80                           	psect	text67,global,reloc=2,class=CODE,delta=1
    81                           	psect	text68,global,reloc=2,class=CODE,delta=1,inline
    82                           	psect	text69,global,reloc=2,class=CODE,delta=1,inline
    83                           	psect	text70,global,reloc=2,class=CODE,delta=1,inline
    84                           	psect	text71,global,reloc=2,class=CODE,delta=1,inline
    85                           	psect	text72,global,reloc=2,class=CODE,delta=1,inline
    86                           	psect	text73,global,reloc=2,class=CODE,delta=1,inline
    87                           	psect	ivt0x8,global,reloc=2,class=CODE,delta=1,noexec,keep,optim=
    88                           	psect	intsave_regs,global,class=BIGRAM,space=1,delta=1,noexec
    89                           	psect	text74,global,reloc=2,class=CODE,delta=1,inline
    90                           	psect	rparam,global,class=COMRAM,space=1,delta=1,noexec
    91                           	psect	idloc,global,abs,ovrld,class=IDLOC,space=5,delta=1,noexec
    92                           	psect	config,global,abs,ovrld,class=CONFIG,space=4,delta=1,noexec
    93   000000                     
    94                           ; Version 2.40
    95                           ; Generated 04/07/2022 GMT
    96                           ; 
    97                           ; Copyright © 2022, Microchip Technology Inc. and its subsidiaries ("Microchip")
    98                           ; All rights reserved.
    99                           ; 
   100                           ; This software is developed by Microchip Technology Inc. and its subsidiaries ("Microch
      +                          ip").
   101                           ; 
   102                           ; Redistribution and use in source and binary forms, with or without modification, are
   103                           ; permitted provided that the following conditions are met:
   104                           ; 
   105                           ;     1. Redistributions of source code must retain the above copyright notice, this lis
      +                          t of
   106                           ;        conditions and the following disclaimer.
   107                           ; 
   108                           ;     2. Redistributions in binary form must reproduce the above copyright notice, this 
      +                          list
   109                           ;        of conditions and the following disclaimer in the documentation and/or other
   110                           ;        materials provided with the distribution. Publication is not required when
   111                           ;        this file is used in an embedded application.
   112                           ; 
   113                           ;     3. Microchip's name may not be used to endorse or promote products derived from th
      +                          is
   114                           ;        software without specific prior written permission.
   115                           ; 
   116                           ; THIS SOFTWARE IS PROVIDED BY MICROCHIP "AS IS" AND ANY EXPRESS OR IMPLIED WARRANTIES,
   117                           ; INCLUDING, BUT NOT LIMITED TO, THE IMPLIED WARRANTIES OF MERCHANTABILITY AND FITNESS F
      +                          OR
   118                           ; PURPOSE ARE DISCLAIMED.  IN NO EVENT SHALL MICROCHIP BE LIABLE FOR ANY DIRECT, INDIREC
      +                          T,
   119                           ; INCIDENTAL, SPECIAL, EXEMPLARY, OR CONSEQUENTIAL DAMAGES (INCLUDING BUT NOT LIMITED TO
   120                           ; PROCUREMENT OF SUBSTITUTE GOODS OR SERVICES; LOSS OF USE, DATA OR PROFITS; OR BUSINESS
   121                           ; INTERRUPTION) HOWSOEVER CAUSED AND ON ANY THEORY OF LIABILITY, WHETHER IN CONTRACT, ST
      +                          RICT
   122                           ; LIABILITY, OR TORT (INCLUDING NEGLIGENCE OR OTHERWISE) ARISING IN ANY WAY OUT OF THE U
      +                          SE OF
   123                           ; THIS SOFTWARE, EVEN IF ADVISED OF THE POSSIBILITY OF SUCH DAMAGE.
   124                           ; 
   125                           ; 
   126                           ; Code-generator required, PIC18F57Q43 Definitions
   127                           ; 
   128                           ; SFR Addresses
   129   000000                     
   130 ;; Function _I2C1_Deinitialize is unused but had its address taken
   131   000000                     
   132 ;; Function _I2C1_Write is unused but had its address taken
   133   000000                     
   134 ;; Function _I2C1_Read is unused but had its address taken
   135   000000                     
   136 ;; Function _I2C1_WriteRead is unused but had its address taken
   137   000000                     
   138 ;; Function _I2C1_ErrorGet is unused but had its address taken
   139   000000                     
   140 ;; Function _I2C1_IsBusy is unused but had its address taken
   141   000000                     
   142 ;; Function _SPI1_Open is unused but had its address taken
   143   000000                     
   144 ;; Function _SPI1_Close is unused but had its address taken
   145   000000                     
   146 ;; Function _SPI1_ByteExchange is unused but had its address taken
   147   000000                     
   148 ;; Function _SPI1_BufferExchange is unused but had its address taken
   149   000000                     
   150 ;; Function _SPI1_BufferWrite is unused but had its address taken
   151   000000                     
   152 ;; Function _SPI1_BufferRead is unused but had its address taken
   153   000000                     
   154 ;; Function _SPI1_ByteWrite is unused but had its address taken
   155   000000                     
   156 ;; Function _SPI1_ByteRead is unused but had its address taken
   157   000000                     
   158 ;; Function _INT0_DefaultInterruptHandler is unused but had its address taken
   159   000000                     
   160 ;; Function _INT1_DefaultInterruptHandler is unused but had its address taken
   161   000000                     
   162 ;; Function _Timer0_Start is unused but had its address taken
   163   000000                     
   164 ;; Function _Timer0_Stop is unused but had its address taken
   165   000000                     
   166 ;; Function _Timer0_Write is unused but had its address taken
   167   000000                     
   168 ;; Function _UART1_Deinitialize is unused but had its address taken
   169   000000                     
   170 ;; Function _UART1_TransmitEnable is unused but had its address taken
   171   000000                     
   172 ;; Function _UART1_TransmitDisable is unused but had its address taken
   173   000000                     
   174 ;; Function _UART1_AutoBaudSet is unused but had its address taken
   175   000000                     
   176 ;; Function _UART1_AutoBaudQuery is unused but had its address taken
   177   000000                     
   178 ;; Function _UART1_IsRxReady is unused but had its address taken
   179   000000                     
   180 ;; Function _UART1_IsTxDone is unused but had its address taken
   181   000000                     
   182 ;; Function _UART1_ErrorGet is unused but had its address taken
   183   000000                     
   184 ;; Function _UART1_Read is unused but had its address taken
   185   000000                     
   186 ;; Function _UART1_DefaultParityErrorCallback is unused but had its address taken
   187   000000                     
   188 ;; Function _UART1_RxCompleteCallbackRegister is unused but had its address taken
   189   000000                     
   190 ;; Function _UART1_TxCompleteCallbackRegister is unused but had its address taken
   191   000000                     
   192                           	psect	mediumconst
   193   00FEC4                     __pmediumconst:
   194                           	callstack 0
   195   00FEC4  00                 	db	0
   196   00FEC5                     _UART1:
   197                           	callstack 0
   198   00FEC5  FC                 	db	low _UART1_Initialize
   199   00FEC6  0C                 	db	high _UART1_Initialize
   200   00FEC7  01                 	db	low (_UART1_Initialize shr (0+16))
   201   00FEC8  00                 	db	0
   202   00FEC9  00                 	db	0
   203   00FECA  00                 	db	0
   204   00FECB  00                 	db	0
   205   00FECC  00                 	db	0
   206   00FECD  00                 	db	0
   207   00FECE  9E                 	db	low _UART1_Write
   208   00FECF  11                 	db	high _UART1_Write
   209   00FED0  01                 	db	low (_UART1_Write shr (0+16))
   210   00FED1  00                 	db	0
   211   00FED2  00                 	db	0
   212   00FED3  00                 	db	0
   213   00FED4  C6                 	db	low _UART1_IsTxReady
   214   00FED5  15                 	db	high _UART1_IsTxReady
   215   00FED6  01                 	db	low (_UART1_IsTxReady shr (0+16))
   216   00FED7  00                 	db	0
   217   00FED8  00                 	db	0
   218   00FED9  00                 	db	0
   219   00FEDA  00                 	db	0
   220   00FEDB  00                 	db	0
   221   00FEDC  00                 	db	0
   222   00FEDD  00                 	db	0
   223   00FEDE  00                 	db	0
   224   00FEDF  00                 	db	0
   225   00FEE0  00                 	db	0
   226   00FEE1  00                 	db	0
   227   00FEE2  00                 	db	0
   228   00FEE3  00                 	db	0
   229   00FEE4  00                 	db	0
   230   00FEE5  00                 	db	0
   231   00FEE6  00                 	db	0
   232   00FEE7  00                 	db	0
   233   00FEE8  00                 	db	0
   234   00FEE9  00                 	db	0
   235   00FEEA  00                 	db	0
   236   00FEEB  00                 	db	0
   237   00FEEC  00                 	db	0
   238   00FEED  00                 	db	0
   239   00FEEE  00                 	db	0
   240   00FEEF  00                 	db	0
   241   00FEF0  00                 	db	0
   242   00FEF1  00                 	db	0
   243   00FEF2  00                 	db	0
   244   00FEF3  00                 	db	0
   245   00FEF4  00                 	db	0
   246   00FEF5  00                 	db	0
   247   00FEF6  00                 	db	0
   248   00FEF7  00                 	db	0
   249   00FEF8  00                 	db	0
   250   00FEF9  00                 	db	0
   251   00FEFA  00                 	db	0
   252   00FEFB  00                 	db	0
   253   00FEFC  00                 	db	0
   254   00FEFD  00                 	db	0
   255   00FEFE  00                 	db	0
   256   00FEFF  00                 	db	0
   257   00FF00  00                 	db	0
   258   00FF01  F6                 	db	low _UART1_FramingErrorCallbackRegister
   259   00FF02  14                 	db	high _UART1_FramingErrorCallbackRegister
   260   00FF03  01                 	db	low (_UART1_FramingErrorCallbackRegister shr (0+16))
   261   00FF04  D4                 	db	low _UART1_OverrunErrorCallbackRegister
   262   00FF05  14                 	db	high _UART1_OverrunErrorCallbackRegister
   263   00FF06  01                 	db	low (_UART1_OverrunErrorCallbackRegister shr (0+16))
   264   00FF07  B2                 	db	low _UART1_ParityErrorCallbackRegister
   265   00FF08  14                 	db	high _UART1_ParityErrorCallbackRegister
   266   00FF09  01                 	db	low (_UART1_ParityErrorCallbackRegister shr (0+16))
   267   00FF0A  00                 	db	0
   268   00FF0B  00                 	db	0
   269   00FF0C  00                 	db	0
   270   00FF0D                     __end_of_UART1:
   271                           	callstack 0
   272   00FF0D                     _I2C1_Host:
   273                           	callstack 0
   274   00FF0D  E8                 	db	low _I2C1_Initialize
   275   00FF0E  10                 	db	high _I2C1_Initialize
   276   00FF0F  01                 	db	low (_I2C1_Initialize shr (0+16))
   277   00FF10  00                 	db	0
   278   00FF11  00                 	db	0
   279   00FF12  00                 	db	0
   280   00FF13  00                 	db	0
   281   00FF14  00                 	db	0
   282   00FF15  00                 	db	0
   283   00FF16  00                 	db	0
   284   00FF17  00                 	db	0
   285   00FF18  00                 	db	0
   286   00FF19  00                 	db	0
   287   00FF1A  00                 	db	0
   288   00FF1B  00                 	db	0
   289   00FF1C  00                 	db	0
   290   00FF1D  00                 	db	0
   291   00FF1E  00                 	db	0
   292   00FF1F  00                 	db	0
   293   00FF20  00                 	db	0
   294   00FF21  00                 	db	0
   295   00FF22  00                 	db	0
   296   00FF23  00                 	db	0
   297   00FF24  00                 	db	0
   298   00FF25  18                 	db	low _I2C1_CallbackRegister
   299   00FF26  15                 	db	high _I2C1_CallbackRegister
   300   00FF27  01                 	db	low (_I2C1_CallbackRegister shr (0+16))
   301   00FF28  00                 	db	0
   302   00FF29  00                 	db	0
   303   00FF2A  00                 	db	0
   304   00FF2B                     __end_of_I2C1_Host:
   305                           	callstack 0
   306   00FF2B                     _SPI1:
   307                           	callstack 0
   308   00FF2B  AC                 	db	low _SPI1_Initialize
   309   00FF2C  15                 	db	high _SPI1_Initialize
   310   00FF2D  01                 	db	low (_SPI1_Initialize shr (0+16))
   311   00FF2E  00                 	db	0
   312   00FF2F  00                 	db	0
   313   00FF30  00                 	db	0
   314   00FF31  00                 	db	0
   315   00FF32  00                 	db	0
   316   00FF33  00                 	db	0
   317   00FF34  00                 	db	0
   318   00FF35  00                 	db	0
   319   00FF36  00                 	db	0
   320   00FF37  00                 	db	0
   321   00FF38  00                 	db	0
   322   00FF39  00                 	db	0
   323   00FF3A  00                 	db	0
   324   00FF3B  00                 	db	0
   325   00FF3C  00                 	db	0
   326   00FF3D  00                 	db	0
   327   00FF3E  00                 	db	0
   328   00FF3F  00                 	db	0
   329   00FF40  00                 	db	0
   330   00FF41  00                 	db	0
   331   00FF42  00                 	db	0
   332   00FF43  00                 	db	0
   333   00FF44  00                 	db	0
   334   00FF45  00                 	db	0
   335   00FF46                     __end_of_SPI1:
   336                           	callstack 0
   337   00FF46                     _Timer0:
   338                           	callstack 0
   339   00FF46  BE                 	db	low _Timer0_Initialize
   340   00FF47  13                 	db	high _Timer0_Initialize
   341   00FF48  01                 	db	low (_Timer0_Initialize shr (0+16))
   342   00FF49  00                 	db	0
   343   00FF4A  00                 	db	0
   344   00FF4B  00                 	db	0
   345   00FF4C  00                 	db	0
   346   00FF4D  00                 	db	0
   347   00FF4E  00                 	db	0
   348   00FF4F  00                 	db	0
   349   00FF50  00                 	db	0
   350   00FF51  00                 	db	0
   351   00FF52  B2                 	db	low _Timer0_OverflowCallbackRegister
   352   00FF53  16                 	db	high _Timer0_OverflowCallbackRegister
   353   00FF54  01                 	db	low (_Timer0_OverflowCallbackRegister shr (0+16))
   354   00FF55  00                 	db	0
   355   00FF56  00                 	db	0
   356   00FF57  00                 	db	0
   357   00FF58                     __end_of_Timer0:
   358                           	callstack 0
   359   00FF58                     _spi1_configuration:
   360                           	callstack 0
   361   00FF58  02                 	db	2
   362   00FF59  40                 	db	64
   363   00FF5A  00                 	db	0
   364   00FF5B  EF                 	db	239
   365   00FF5C  00                 	db	0
   366   00FF5D                     __end_of_spi1_configuration:
   367                           	callstack 0
   368   000000                     _T0CON0	set	794
   369   000000                     _T0CON1	set	795
   370   000000                     _IOCEF	set	1063
   371   000000                     _IOCEN	set	1062
   372   000000                     _IOCEP	set	1061
   373   000000                     _IOCCF	set	1047
   374   000000                     _IOCCN	set	1046
   375   000000                     _IOCCP	set	1045
   376   000000                     _IOCBF	set	1039
   377   000000                     _IOCBN	set	1038
   378   000000                     _IOCBP	set	1037
   379   000000                     _IOCAF	set	1031
   380   000000                     _IOCAN	set	1030
   381   000000                     _IOCAP	set	1029
   382   000000                     _INLVLE	set	1060
   383   000000                     _INLVLC	set	1044
   384   000000                     _INLVLB	set	1036
   385   000000                     _INLVLA	set	1028
   386   000000                     _SLRCONE	set	1059
   387   000000                     _SLRCONC	set	1043
   388   000000                     _SLRCONB	set	1035
   389   000000                     _SLRCONA	set	1027
   390   000000                     _ODCONE	set	1058
   391   000000                     _ODCONC	set	1042
   392   000000                     _ODCONB	set	1034
   393   000000                     _ODCONA	set	1026
   394   000000                     _WPUE	set	1057
   395   000000                     _WPUC	set	1041
   396   000000                     _WPUB	set	1033
   397   000000                     _WPUA	set	1025
   398   000000                     _ANSELF	set	1064
   399   000000                     _ANSELD	set	1048
   400   000000                     _ANSELC	set	1040
   401   000000                     _ANSELB	set	1032
   402   000000                     _TRISB	set	1223
   403   000000                     _OSCTUNE	set	176
   404   000000                     _OSCFRQ	set	177
   405   000000                     _OSCEN	set	179
   406   000000                     _I2C1STAT1	set	665
   407   000000                     _I2C1STAT0bits	set	664
   408   000000                     _I2C1ERR	set	663
   409   000000                     _I2C1PIE	set	667
   410   000000                     _I2C1PIR	set	666
   411   000000                     _I2C1CLK	set	668
   412   000000                     _I2C1CON2	set	662
   413   000000                     _I2C1CON1	set	661
   414   000000                     _SPI1CON0bits	set	132
   415   000000                     _U1ERRIRbits	set	690
   416   000000                     _U1UIRbits	set	689
   417   000000                     _U1CON0bits	set	683
   418   000000                     _U1CON1bits	set	684
   419   000000                     _I2C1STAT1bits	set	665
   420   000000                     _I2C1CON1bits	set	661
   421   000000                     _I2C1ERRbits	set	663
   422   000000                     _I2C1PIRbits	set	666
   423   000000                     _I2C1CON0bits	set	660
   424   000000                     _I2C1PIEbits	set	667
   425   000000                     _T0CON0bits	set	794
   426   000000                     _LATFbits	set	1219
   427   000000                     _TRISC	set	1224
   428   000000                     _SPI1RXB	set	128
   429   000000                     _SPI1TXB	set	129
   430   000000                     _SPI1TCNTL	set	130
   431   000000                     _SPI1CON0	set	132
   432   000000                     _SPI1CON1	set	133
   433   000000                     _RB2I2C	set	648
   434   000000                     _RB1I2C	set	649
   435   000000                     _I2C1CNT	set	653
   436   000000                     _I2C1CON0	set	660
   437   000000                     _U1RXB	set	673
   438   000000                     _TMR0L	set	792
   439   000000                     _TMR0H	set	793
   440   000000                     _ANSELA	set	1024
   441   000000                     _PIE0bits	set	1182
   442   000000                     _PIE7bits	set	1189
   443   000000                     _I2C1ADB1	set	655
   444   000000                     _I2C1RXB	set	651
   445   000000                     _I2C1TXB	set	652
   446   000000                     _PIE10bits	set	1192
   447   000000                     _PIR1bits	set	1199
   448   000000                     _PIR3bits	set	1201
   449   000000                     _TRISCbits	set	1224
   450   000000                     _SPI1BAUD	set	137
   451   000000                     _SPI1CLK	set	140
   452   000000                     _SPI1CON2	set	134
   453   000000                     _ACTCON	set	172
   454   000000                     _OSCCON1	set	173
   455   000000                     _TRISF	set	1227
   456   000000                     _TRISE	set	1226
   457   000000                     _TRISD	set	1225
   458   000000                     _INTCON0bits	set	1238
   459   000000                     _PIR4bits	set	1202
   460   000000                     _PIR6bits	set	1204
   461   000000                     _PIR7bits	set	1205
   462   000000                     _PIR10bits	set	1208
   463   000000                     _LATA	set	1214
   464   000000                     _PIR0bits	set	1198
   465   000000                     _PIE3bits	set	1185
   466   000000                     _PIE4bits	set	1186
   467   000000                     _OSCCON3	set	175
   468   000000                     _RB1PPS	set	522
   469   000000                     _RC4PPS	set	533
   470   000000                     _RF0PPS	set	553
   471   000000                     _INT2PPS	set	576
   472   000000                     _U1RXPPS	set	626
   473   000000                     _RC4I2C	set	646
   474   000000                     _RC3I2C	set	647
   475   000000                     _TRISA	set	1222
   476   000000                     _LATF	set	1219
   477   000000                     _LATE	set	1218
   478   000000                     _LATD	set	1217
   479   000000                     _LATC	set	1216
   480   000000                     _LATB	set	1215
   481   000000                     _INLVLD	set	1052
   482   000000                     _SLRCOND	set	1051
   483   000000                     _ODCOND	set	1050
   484   000000                     _WPUD	set	1049
   485   000000                     _ANSELE	set	1056
   486   000000                     _INLVLF	set	1068
   487   000000                     _SLRCONF	set	1067
   488   000000                     _ODCONF	set	1066
   489   000000                     _WPUF	set	1065
   490   000000                     _SPI1SCKPPS	set	618
   491   000000                     _RC6PPS	set	535
   492   000000                     _I2C1SDAPPS	set	624
   493   000000                     _I2C1SCLPPS	set	625
   494   000000                     _RB2PPS	set	523
   495   000000                     _U1ERRIE	set	691
   496   000000                     _U1ERRIR	set	690
   497   000000                     _U1UIR	set	689
   498   000000                     _U1FIFO	set	688
   499   000000                     _U1BRGH	set	687
   500   000000                     _U1BRGL	set	686
   501   000000                     _U1CON2	set	685
   502   000000                     _U1CON1	set	684
   503   000000                     _U1CON0	set	683
   504   000000                     _U1P3H	set	682
   505   000000                     _U1P3L	set	681
   506   000000                     _U1P2H	set	680
   507   000000                     _U1P2L	set	679
   508   000000                     _U1P1H	set	678
   509   000000                     _U1P1L	set	677
   510   000000                     _U1TXCHK	set	676
   511   000000                     _U1TXB	set	675
   512   000000                     _U1RXCHK	set	674
   513   00FF5D                     STR_6:
   514                           
   515                           ; BSR set to: 2
   516   00FF5D  53                 	db	83	;'S'
   517   00FF5E  69                 	db	105	;'i'
   518   00FF5F  6D                 	db	109	;'m'
   519   00FF60  70                 	db	112	;'p'
   520   00FF61  6C                 	db	108	;'l'
   521   00FF62  65                 	db	101	;'e'
   522   00FF63  20                 	db	32
   523   00FF64  54                 	db	84	;'T'
   524   00FF65  61                 	db	97	;'a'
   525   00FF66  73                 	db	115	;'s'
   526   00FF67  6B                 	db	107	;'k'
   527   00FF68  20                 	db	32
   528   00FF69  4D                 	db	77	;'M'
   529   00FF6A  61                 	db	97	;'a'
   530   00FF6B  6E                 	db	110	;'n'
   531   00FF6C  61                 	db	97	;'a'
   532   00FF6D  67                 	db	103	;'g'
   533   00FF6E  65                 	db	101	;'e'
   534   00FF6F  72                 	db	114	;'r'
   535   00FF70  20                 	db	32
   536   00FF71  65                 	db	101	;'e'
   537   00FF72  78                 	db	120	;'x'
   538   00FF73  61                 	db	97	;'a'
   539   00FF74  6D                 	db	109	;'m'
   540   00FF75  70                 	db	112	;'p'
   541   00FF76  6C                 	db	108	;'l'
   542   00FF77  65                 	db	101	;'e'
   543   00FF78  20                 	db	32
   544   00FF79  20                 	db	32
   545   00FF7A  20                 	db	32
   546   00FF7B  20                 	db	32
   547   00FF7C  20                 	db	32
   548   00FF7D  20                 	db	32
   549   00FF7E  20                 	db	32
   550   00FF7F  20                 	db	32
   551   00FF80  20                 	db	32
   552   00FF81  20                 	db	32
   553   00FF82  20                 	db	32
   554   00FF83  20                 	db	32
   555   00FF84  20                 	db	32
   556   00FF85  20                 	db	32
   557   00FF86  20                 	db	32
   558   00FF87  20                 	db	32
   559   00FF88  20                 	db	32
   560   00FF89  20                 	db	32
   561   00FF8A  20                 	db	32
   562   00FF8B  20                 	db	32
   563   00FF8C  20                 	db	32
   564   00FF8D  20                 	db	32
   565   00FF8E  20                 	db	32
   566   00FF8F  20                 	db	32
   567   00FF90  20                 	db	32
   568   00FF91  20                 	db	32
   569   00FF92  20                 	db	32
   570   00FF93  20                 	db	32
   571   00FF94  20                 	db	32
   572   00FF95  20                 	db	32
   573   00FF96  20                 	db	32
   574   00FF97  20                 	db	32
   575   00FF98  20                 	db	32
   576   00FF99  20                 	db	32
   577   00FF9A  20                 	db	32
   578   00FF9B  20                 	db	32
   579   00FF9C  20                 	db	32
   580   00FF9D  20                 	db	32
   581   00FF9E  20                 	db	32
   582   00FF9F  0D                 	db	13
   583   00FFA0  0A                 	db	10
   584   00FFA1  00                 	db	0
   585   00FFA2                     STR_5:
   586                           
   587                           ; BSR set to: 2
   588   00FFA2  2D                 	db	45
   589   00FFA3  2D                 	db	45
   590   00FFA4  2D                 	db	45
   591   00FFA5  2D                 	db	45
   592   00FFA6  2D                 	db	45
   593   00FFA7  2D                 	db	45
   594   00FFA8  2D                 	db	45
   595   00FFA9  2D                 	db	45
   596   00FFAA  2D                 	db	45
   597   00FFAB  2D                 	db	45
   598   00FFAC  2D                 	db	45
   599   00FFAD  2D                 	db	45
   600   00FFAE  2D                 	db	45
   601   00FFAF  2D                 	db	45
   602   00FFB0  2D                 	db	45
   603   00FFB1  2D                 	db	45
   604   00FFB2  2D                 	db	45
   605   00FFB3  2D                 	db	45
   606   00FFB4  2D                 	db	45
   607   00FFB5  2D                 	db	45
   608   00FFB6  2D                 	db	45
   609   00FFB7  2D                 	db	45
   610   00FFB8  2D                 	db	45
   611   00FFB9  2D                 	db	45
   612   00FFBA  2D                 	db	45
   613   00FFBB  2D                 	db	45
   614   00FFBC  2D                 	db	45
   615   00FFBD  2D                 	db	45
   616   00FFBE  2D                 	db	45
   617   00FFBF  2D                 	db	45
   618   00FFC0  2D                 	db	45
   619   00FFC1  2D                 	db	45
   620   00FFC2  2D                 	db	45
   621   00FFC3  2D                 	db	45
   622   00FFC4  2D                 	db	45
   623   00FFC5  2D                 	db	45
   624   00FFC6  2D                 	db	45
   625   00FFC7  2D                 	db	45
   626   00FFC8  2D                 	db	45
   627   00FFC9  2D                 	db	45
   628   00FFCA  2D                 	db	45
   629   00FFCB  2D                 	db	45
   630   00FFCC  2D                 	db	45
   631   00FFCD  2D                 	db	45
   632   00FFCE  2D                 	db	45
   633   00FFCF  2D                 	db	45
   634   00FFD0  2D                 	db	45
   635   00FFD1  2D                 	db	45
   636   00FFD2  2D                 	db	45
   637   00FFD3  2D                 	db	45
   638   00FFD4  2D                 	db	45
   639   00FFD5  2D                 	db	45
   640   00FFD6  2D                 	db	45
   641   00FFD7  2D                 	db	45
   642   00FFD8  2D                 	db	45
   643   00FFD9  2D                 	db	45
   644   00FFDA  2D                 	db	45
   645   00FFDB  2D                 	db	45
   646   00FFDC  2D                 	db	45
   647   00FFDD  2D                 	db	45
   648   00FFDE  2D                 	db	45
   649   00FFDF  2D                 	db	45
   650   00FFE0  2D                 	db	45
   651   00FFE1  2D                 	db	45
   652   00FFE2  2D                 	db	45
   653   00FFE3  2D                 	db	45
   654   00FFE4  0D                 	db	13
   655   00FFE5  0A                 	db	10
   656   00FFE6  00                 	db	0
   657   00FFE7                     STR_3:
   658                           
   659                           ; BSR set to: 2
   660   00FFE7  1B                 	db	27
   661   00FFE8  5B                 	db	91	;'['
   662   00FFE9  30                 	db	48	;'0'
   663   00FFEA  3B                 	db	59	;';'
   664   00FFEB  30                 	db	48	;'0'
   665   00FFEC  66                 	db	102	;'f'
   666   00FFED  00                 	db	0
   667   00FFEE                     STR_4:
   668                           
   669                           ; BSR set to: 2
   670   00FFEE  1B                 	db	27
   671   00FFEF  5B                 	db	91	;'['
   672   00FFF0  3F                 	db	63	;'?'
   673   00FFF1  32                 	db	50	;'2'
   674   00FFF2  35                 	db	53	;'5'
   675   00FFF3  6C                 	db	108	;'l'
   676   00FFF4  00                 	db	0
   677   00FFF5                     STR_1:
   678                           
   679                           ; BSR set to: 2
   680   00FFF5  25                 	db	37
   681   00FFF6  64                 	db	100	;'d'
   682   00FFF7  0D                 	db	13
   683   00FFF8  0A                 	db	10
   684   00FFF9  00                 	db	0
   685   00FFFA                     STR_2:
   686                           
   687                           ; BSR set to: 2
   688   00FFFA  1B                 	db	27
   689   00FFFB  5B                 	db	91	;'['
   690   00FFFC  32                 	db	50	;'2'
   691   00FFFD  4A                 	db	74	;'J'
   692   00FFFE  00                 	db	0
   693   00FFFF  00                 	db	0	; dummy byte at the end
   694   000000                     
   695                           ; #config settings
   696                           
   697                           	psect	cinit
   698   0112EA                     __pcinit:
   699                           	callstack 0
   700   0112EA                     start_initialization:
   701                           	callstack 0
   702   0112EA                     __initialization:
   703                           	callstack 0
   704                           
   705                           ; Clear objects allocated to BANK6 (144 bytes)
   706   0112EA  EE01  F200         	lfsr	0,__pbssBANK6
   707   0112EE  0E90               	movlw	144
   708   0112F0                     clear_0:
   709   0112F0  6AEE               	clrf	postinc0,c
   710   0112F2  06E8               	decf	wreg,f,c
   711   0112F4  E1FD               	bnz	clear_0
   712                           
   713                           ; Clear objects allocated to BANK5 (137 bytes)
   714   0112F6  EE01  F160         	lfsr	0,__pbssBANK5
   715   0112FA  0E89               	movlw	137
   716   0112FC                     clear_1:
   717   0112FC  6AEE               	clrf	postinc0,c
   718   0112FE  06E8               	decf	wreg,f,c
   719   011300  E1FD               	bnz	clear_1
   720                           
   721                           ; Clear objects allocated to COMRAM (6 bytes)
   722   011302  6A59               	clrf	(__pbssCOMRAM+5)& (0+255),c
   723   011304  6A58               	clrf	(__pbssCOMRAM+4)& (0+255),c
   724   011306  6A57               	clrf	(__pbssCOMRAM+3)& (0+255),c
   725   011308  6A56               	clrf	(__pbssCOMRAM+2)& (0+255),c
   726   01130A  6A55               	clrf	(__pbssCOMRAM+1)& (0+255),c
   727   01130C  6A54               	clrf	__pbssCOMRAM& (0+255),c
   728                           
   729                           ;
   730                           ; Setup IVTBASE
   731                           ;
   732   01130E  0104               	movlb	4
   733   011310  0E08               	movlw	(ivt0x8_base shr 0)& (0+255)
   734   011312  6F5D               	movwf	93,b
   735   011314  0E00               	movlw	(ivt0x8_base shr (0+8))& (0+255)
   736   011316  6F5E               	movwf	94,b
   737   011318  0E00               	movlw	(ivt0x8_base shr (0+16))& (0+255)
   738   01131A  6F5F               	movwf	95,b
   739   01131C                     end_of_initialization:
   740                           	callstack 0
   741   01131C                     __end_of__initialization:
   742                           	callstack 0
   743   01131C  0100               	movlb	0
   744   01131E  EFC4  F087         	goto	_main	;jump to C main() function
   745                           
   746                           	psect	bssCOMRAM
   747   000554                     __pbssCOMRAM:
   748                           	callstack 0
   749   000554                     _uart1RxCount:
   750                           	callstack 0
   751   000554                     	ds	1
   752   000555                     _uart1RxTail:
   753                           	callstack 0
   754   000555                     	ds	1
   755   000556                     _uart1RxHead:
   756                           	callstack 0
   757   000556                     	ds	1
   758   000557                     _uart1TxBufferRemaining:
   759                           	callstack 0
   760   000557                     	ds	1
   761   000558                     _uart1TxTail:
   762                           	callstack 0
   763   000558                     	ds	1
   764   000559                     _uart1TxHead:
   765                           	callstack 0
   766   000559                     	ds	1
   767                           
   768                           	psect	bssBANK5
   769   000560                     __pbssBANK5:
   770                           	callstack 0
   771   000560                     _uart1RxStatusBuffer:
   772                           	callstack 0
   773   000560                     	ds	32
   774   000580                     _uart1RxBuffer:
   775                           	callstack 0
   776   000580                     	ds	16
   777   000590                     _i2c1Status:
   778                           	callstack 0
   779   000590                     	ds	13
   780   00059D                     _UART1_RxCompleteInterruptHandler:
   781                           	callstack 0
   782   00059D                     	ds	3
   783   0005A0                     _UART1_TxCompleteInterruptHandler:
   784                           	callstack 0
   785   0005A0                     	ds	3
   786   0005A3                     _UART1_ParityErrorHandler:
   787                           	callstack 0
   788   0005A3                     	ds	3
   789   0005A6                     _UART1_OverrunErrorHandler:
   790                           	callstack 0
   791   0005A6                     	ds	3
   792   0005A9                     _UART1_FramingErrorHandler:
   793                           	callstack 0
   794   0005A9                     	ds	3
   795   0005AC                     _Timer0_OverflowCallback:
   796                           	callstack 0
   797   0005AC                     	ds	3
   798   0005AF                     _INT2_InterruptHandler:
   799                           	callstack 0
   800   0005AF                     	ds	3
   801   0005B2                     _INT1_InterruptHandler:
   802                           	callstack 0
   803   0005B2                     	ds	3
   804   0005B5                     _INT0_InterruptHandler:
   805                           	callstack 0
   806   0005B5                     	ds	3
   807   0005B8                     _UART1_RxInterruptHandler:
   808                           	callstack 0
   809   0005B8                     	ds	3
   810   0005BB                     _UART1_TxInterruptHandler:
   811                           	callstack 0
   812   0005BB                     	ds	3
   813   0005BE                     _I2C1_Callback:
   814                           	callstack 0
   815   0005BE                     	ds	3
   816   0005C1                     _width:
   817                           	callstack 0
   818   0005C1                     	ds	2
   819   0005C3                     _prec:
   820                           	callstack 0
   821   0005C3                     	ds	2
   822   0005C5                     _uart1RxLastError:
   823                           	callstack 0
   824   0005C5                     	ds	2
   825   0005C7                     _flags:
   826                           	callstack 0
   827   0005C7                     	ds	1
   828   0005C8                     _counter:
   829                           	callstack 0
   830   0005C8                     	ds	1
   831   0005C9                     _dbuf:
   832                           	callstack 0
   833   0005C9                     	ds	32
   834                           
   835                           	psect	bssBANK6
   836   000600                     __pbssBANK6:
   837                           	callstack 0
   838   000600                     _tasks:
   839                           	callstack 0
   840   000600                     	ds	80
   841   000650                     _uart1TxBuffer:
   842                           	callstack 0
   843   000650                     	ds	64
   844                           
   845                           	psect	cstackBANK6
   846   000690                     __pcstackBANK6:
   847                           	callstack 0
   848   000690                     Task_execute@i:
   849                           	callstack 0
   850                           
   851                           ; 1 bytes @ 0x0
   852   000690                     	ds	1
   853                           
   854                           	psect	cstackBANK5
   855   0005E9                     __pcstackBANK5:
   856                           	callstack 0
   857   0005E9                     vfpfcnvrt@convarg:
   858                           	callstack 0
   859                           
   860                           ; 8 bytes @ 0x0
   861   0005E9                     	ds	8
   862   0005F1                     vfpfcnvrt@cp:
   863                           	callstack 0
   864                           
   865                           ; 2 bytes @ 0x8
   866   0005F1                     	ds	2
   867   0005F3                     ?_vfprintf:
   868                           	callstack 0
   869   0005F3                     vfprintf@fp:
   870                           	callstack 0
   871                           
   872                           ; 2 bytes @ 0xA
   873   0005F3                     	ds	2
   874   0005F5                     vfprintf@fmt:
   875                           	callstack 0
   876                           
   877                           ; 2 bytes @ 0xC
   878   0005F5                     	ds	2
   879   0005F7                     vfprintf@ap:
   880                           	callstack 0
   881                           
   882                           ; 2 bytes @ 0xE
   883   0005F7                     	ds	2
   884   0005F9                     ?_printf:
   885                           	callstack 0
   886   0005F9                     printf@fmt:
   887                           	callstack 0
   888                           
   889                           ; 2 bytes @ 0x10
   890   0005F9                     	ds	4
   891   0005FD                     
   892                           ; 1 bytes @ 0x14
   893   0005FD                     	ds	3
   894                           
   895                           	psect	cstackCOMRAM
   896   000501                     __pcstackCOMRAM:
   897                           	callstack 0
   898   000501                     I2C1_AddrTransmit@addr:
   899                           	callstack 0
   900   000501                     I2C1_DataTransmit@data:
   901                           	callstack 0
   902   000501                     I2C1_CounterSet@counter:
   903                           	callstack 0
   904   000501                     UART1_ReceiveISR@regValue:
   905                           	callstack 0
   906   000501                     UART1_TransmitISR@tempTxTail:
   907                           	callstack 0
   908                           
   909                           ; 1 bytes @ 0x0
   910   000501                     	ds	1
   911   000502                     UART1_ReceiveISR@tempRxHead:
   912                           	callstack 0
   913                           
   914                           ; 1 bytes @ 0x1
   915   000502                     	ds	2
   916   000504                     Task_synch@i:
   917                           	callstack 0
   918                           
   919                           ; 1 bytes @ 0x3
   920   000504                     	ds	1
   921   000505                     ??_INTERRUPT_InterruptManager:
   922                           
   923                           ; 1 bytes @ 0x4
   924   000505                     	ds	2
   925   000507                     ??_toggleLed:
   926   000507                     ?___aodiv:
   927                           	callstack 0
   928   000507                     ?___aomod:
   929                           	callstack 0
   930   000507                     UART1_Write@tempTxHead:
   931                           	callstack 0
   932   000507                     Task_register@delay:
   933                           	callstack 0
   934   000507                     I2C1_CallbackRegister@callbackHandler:
   935                           	callstack 0
   936   000507                     INT0_SetInterruptHandler@InterruptHandler:
   937                           	callstack 0
   938   000507                     INT1_SetInterruptHandler@InterruptHandler:
   939                           	callstack 0
   940   000507                     INT2_SetInterruptHandler@InterruptHandler:
   941                           	callstack 0
   942   000507                     Timer0_OverflowCallbackRegister@CallbackHandler:
   943                           	callstack 0
   944   000507                     UART1_FramingErrorCallbackRegister@callbackHandler:
   945                           	callstack 0
   946   000507                     UART1_OverrunErrorCallbackRegister@callbackHandler:
   947                           	callstack 0
   948   000507                     UART1_ParityErrorCallbackRegister@callbackHandler:
   949                           	callstack 0
   950   000507                     ___aodiv@dividend:
   951                           	callstack 0
   952   000507                     ___aomod@dividend:
   953                           	callstack 0
   954                           
   955                           ; 8 bytes @ 0x6
   956   000507                     	ds	1
   957   000508                     UART1_Write@txData:
   958                           	callstack 0
   959                           
   960                           ; 1 bytes @ 0x7
   961   000508                     	ds	1
   962   000509                     putch@txData:
   963                           	callstack 0
   964   000509                     Task_register@reload:
   965                           	callstack 0
   966                           
   967                           ; 2 bytes @ 0x8
   968   000509                     	ds	1
   969   00050A                     fputc@c:
   970                           	callstack 0
   971                           
   972                           ; 2 bytes @ 0x9
   973   00050A                     	ds	1
   974   00050B                     Task_register@task:
   975                           	callstack 0
   976                           
   977                           ; 3 bytes @ 0xA
   978   00050B                     	ds	1
   979   00050C                     fputc@fp:
   980                           	callstack 0
   981                           
   982                           ; 2 bytes @ 0xB
   983   00050C                     	ds	2
   984   00050E                     ??_fputc:
   985                           
   986                           ; 1 bytes @ 0xD
   987   00050E                     	ds	1
   988   00050F                     ___aodiv@divisor:
   989                           	callstack 0
   990   00050F                     ___aomod@divisor:
   991                           	callstack 0
   992                           
   993                           ; 8 bytes @ 0xE
   994   00050F                     	ds	2
   995   000511                     Task_register@i:
   996                           	callstack 0
   997                           
   998                           ; 1 bytes @ 0x10
   999   000511                     	ds	2
  1000   000513                     fputs@s:
  1001                           	callstack 0
  1002                           
  1003                           ; 2 bytes @ 0x12
  1004   000513                     	ds	2
  1005   000515                     fputs@fp:
  1006                           	callstack 0
  1007                           
  1008                           ; 2 bytes @ 0x14
  1009   000515                     	ds	2
  1010   000517                     ___aodiv@counter:
  1011                           	callstack 0
  1012   000517                     ___aomod@counter:
  1013                           	callstack 0
  1014   000517                     fputs@c:
  1015                           	callstack 0
  1016                           
  1017                           ; 1 bytes @ 0x16
  1018   000517                     	ds	1
  1019   000518                     ___aodiv@sign:
  1020                           	callstack 0
  1021   000518                     ___aomod@sign:
  1022                           	callstack 0
  1023   000518                     fputs@i:
  1024                           	callstack 0
  1025                           
  1026                           ; 2 bytes @ 0x17
  1027   000518                     	ds	1
  1028   000519                     ?_abs:
  1029                           	callstack 0
  1030   000519                     abs@a:
  1031                           	callstack 0
  1032   000519                     ___aodiv@quotient:
  1033                           	callstack 0
  1034                           
  1035                           ; 8 bytes @ 0x18
  1036   000519                     	ds	1
  1037   00051A                     pad@fp:
  1038                           	callstack 0
  1039                           
  1040                           ; 2 bytes @ 0x19
  1041   00051A                     	ds	1
  1042   00051B                     ??_abs:
  1043                           
  1044                           ; 1 bytes @ 0x1A
  1045   00051B                     	ds	1
  1046   00051C                     pad@buf:
  1047                           	callstack 0
  1048                           
  1049                           ; 2 bytes @ 0x1B
  1050   00051C                     	ds	2
  1051   00051E                     pad@p:
  1052                           	callstack 0
  1053                           
  1054                           ; 2 bytes @ 0x1D
  1055   00051E                     	ds	2
  1056   000520                     ??_pad:
  1057                           
  1058                           ; 1 bytes @ 0x1F
  1059   000520                     	ds	1
  1060   000521                     pad@i:
  1061                           	callstack 0
  1062                           
  1063                           ; 2 bytes @ 0x20
  1064   000521                     	ds	2
  1065   000523                     pad@w:
  1066                           	callstack 0
  1067                           
  1068                           ; 2 bytes @ 0x22
  1069   000523                     	ds	2
  1070   000525                     dtoa@fp:
  1071                           	callstack 0
  1072                           
  1073                           ; 2 bytes @ 0x24
  1074   000525                     	ds	2
  1075   000527                     dtoa@d:
  1076                           	callstack 0
  1077                           
  1078                           ; 8 bytes @ 0x26
  1079   000527                     	ds	8
  1080   00052F                     ??_dtoa:
  1081                           
  1082                           ; 1 bytes @ 0x2E
  1083   00052F                     	ds	8
  1084   000537                     _dtoa$2853:
  1085                           	callstack 0
  1086                           
  1087                           ; 2 bytes @ 0x36
  1088   000537                     	ds	2
  1089   000539                     dtoa@p:
  1090                           	callstack 0
  1091                           
  1092                           ; 2 bytes @ 0x38
  1093   000539                     	ds	2
  1094   00053B                     dtoa@w:
  1095                           	callstack 0
  1096                           
  1097                           ; 2 bytes @ 0x3A
  1098   00053B                     	ds	2
  1099   00053D                     dtoa@n:
  1100                           	callstack 0
  1101                           
  1102                           ; 8 bytes @ 0x3C
  1103   00053D                     	ds	8
  1104   000545                     dtoa@s:
  1105                           	callstack 0
  1106                           
  1107                           ; 1 bytes @ 0x44
  1108   000545                     	ds	1
  1109   000546                     dtoa@i:
  1110                           	callstack 0
  1111                           
  1112                           ; 2 bytes @ 0x45
  1113   000546                     	ds	2
  1114   000548                     vfpfcnvrt@fp:
  1115                           	callstack 0
  1116                           
  1117                           ; 2 bytes @ 0x47
  1118   000548                     	ds	2
  1119   00054A                     vfpfcnvrt@fmt:
  1120                           	callstack 0
  1121                           
  1122                           ; 2 bytes @ 0x49
  1123   00054A                     	ds	2
  1124   00054C                     vfpfcnvrt@ap:
  1125                           	callstack 0
  1126                           
  1127                           ; 2 bytes @ 0x4B
  1128   00054C                     	ds	2
  1129   00054E                     ??_vfpfcnvrt:
  1130                           
  1131                           ; 1 bytes @ 0x4D
  1132   00054E                     	ds	2
  1133   000550                     vfprintf@cfmt:
  1134                           	callstack 0
  1135                           
  1136                           ; 2 bytes @ 0x4F
  1137   000550                     	ds	2
  1138   000552                     printf@ap:
  1139                           	callstack 0
  1140                           
  1141                           ; 2 bytes @ 0x51
  1142   000552                     	ds	2
  1143   000554                     
  1144                           ; 1 bytes @ 0x53
  1145 ;;
  1146 ;;Main: autosize = 0, tempsize = 0, incstack = 0, save=0
  1147 ;;
  1148 ;; *************** function _main *****************
  1149 ;; Defined at:
  1150 ;;		line 19 in file "main.c"
  1151 ;; Parameters:    Size  Location     Type
  1152 ;;		None
  1153 ;; Auto vars:     Size  Location     Type
  1154 ;;		None
  1155 ;; Return value:  Size  Location     Type
  1156 ;;                  2  1020[None  ] int 
  1157 ;; Registers used:
  1158 ;;		wreg, fsr1l, fsr1h, fsr2l, fsr2h, status,2, status,0, pcl, pclath, pclatu, tosl, tblptrl, tblptrh, tblptru, prodl, p
      +rodh, cstack
  1159 ;; Tracked objects:
  1160 ;;		On entry : 0/0
  1161 ;;		On exit  : 0/0
  1162 ;;		Unchanged: 0/0
  1163 ;; Data sizes:     COMRAM   BANK5   BANK6   BANK7   BANK8   BANK9  BANK10  BANK11  BANK12  BANK13  BANK14  BANK15  BANK1
      +6  BANK17  BANK18  BANK19  BANK20  BANK21  BANK22  BANK23  BANK24  BANK25  BANK26  BANK27  BANK28  BANK29  BANK30  BANK3
      +1  BANK32  BANK33  BANK34  BANK35  BANK36
  1164 ;;      Params:         0       0       0       0       0       0       0       0       0       0       0       0       
      +0       0       0       0       0       0       0       0       0       0       0       0       0       0       0       
      +0       0       0       0       0       0
  1165 ;;      Locals:         0       0       0       0       0       0       0       0       0       0       0       0       
      +0       0       0       0       0       0       0       0       0       0       0       0       0       0       0       
      +0       0       0       0       0       0
  1166 ;;      Temps:          0       0       0       0       0       0       0       0       0       0       0       0       
      +0       0       0       0       0       0       0       0       0       0       0       0       0       0       0       
      +0       0       0       0       0       0
  1167 ;;      Totals:         0       0       0       0       0       0       0       0       0       0       0       0       
      +0       0       0       0       0       0       0       0       0       0       0       0       0       0       0       
      +0       0       0       0       0       0
  1168 ;;Total ram usage:        0 bytes
  1169 ;; Hardware stack levels required when called: 15
  1170 ;; This function calls:
  1171 ;;		_SYSTEM_Initialize
  1172 ;;		_Task_execute
  1173 ;;		_Task_register
  1174 ;;		_Timer0_OverflowCallbackRegister
  1175 ;; This function is called by:
  1176 ;;		Startup code after reset
  1177 ;; This function uses a non-reentrant model
  1178 ;;
  1179                           
  1180                           	psect	text0
  1181   010F88                     __ptext0:
  1182                           	callstack 0
  1183   010F88                     _main:
  1184                           	callstack 112
  1185   010F88                     
  1186                           ;main.c: 21:     SYSTEM_Initialize();
  1187   010F88  ECAC  F08A         	call	_SYSTEM_Initialize	;wreg free
  1188   010F8C                     
  1189                           ;main.c: 23:     (INTCON0bits.GIE = 1);
  1190   010F8C  8ED6               	bsf	214,7,c	;volatile
  1191                           
  1192                           ;main.c: 25:     Timer0_OverflowCallbackRegister(Task_synch);
  1193   010F8E  0E2A               	movlw	low _Task_synch
  1194   010F90  6E07               	movwf	Timer0_OverflowCallbackRegister@CallbackHandler^(0+1280),c
  1195   010F92  0E0C               	movlw	high _Task_synch
  1196   010F94  6E08               	movwf	(Timer0_OverflowCallbackRegister@CallbackHandler+1)^(0+1280),c
  1197   010F96  0E01               	movlw	low (_Task_synch shr (0+16))
  1198   010F98  6E09               	movwf	(Timer0_OverflowCallbackRegister@CallbackHandler+2)^(0+1280),c
  1199   010F9A  EC59  F08B         	call	_Timer0_OverflowCallbackRegister	;wreg free
  1200   010F9E                     
  1201                           ;main.c: 27:     Task_register(0, 500, toggleLed);
  1202   010F9E  0E00               	movlw	0
  1203   010FA0  6E08               	movwf	(Task_register@delay+1)^(0+1280),c
  1204   010FA2  0E00               	movlw	0
  1205   010FA4  6E07               	movwf	Task_register@delay^(0+1280),c
  1206   010FA6  0E01               	movlw	1
  1207   010FA8  6E0A               	movwf	(Task_register@reload+1)^(0+1280),c
  1208   010FAA  0EF4               	movlw	244
  1209   010FAC  6E09               	movwf	Task_register@reload^(0+1280),c
  1210   010FAE  0E3C               	movlw	low _toggleLed
  1211   010FB0  6E0B               	movwf	Task_register@task^(0+1280),c
  1212   010FB2  0E14               	movlw	high _toggleLed
  1213   010FB4  6E0C               	movwf	(Task_register@task+1)^(0+1280),c
  1214   010FB6  0E01               	movlw	low (_toggleLed shr (0+16))
  1215   010FB8  6E0D               	movwf	(Task_register@task+2)^(0+1280),c
  1216   010FBA  ECDF  F086         	call	_Task_register	;wreg free
  1217   010FBE                     
  1218                           ;main.c: 28:     Task_register(0, 0, printWelcome);
  1219   010FBE  0E00               	movlw	0
  1220   010FC0  6E08               	movwf	(Task_register@delay+1)^(0+1280),c
  1221   010FC2  0E00               	movlw	0
  1222   010FC4  6E07               	movwf	Task_register@delay^(0+1280),c
  1223   010FC6  0E00               	movlw	0
  1224   010FC8  6E0A               	movwf	(Task_register@reload+1)^(0+1280),c
  1225   010FCA  0E00               	movlw	0
  1226   010FCC  6E09               	movwf	Task_register@reload^(0+1280),c
  1227   010FCE  0E84               	movlw	low _printWelcome
  1228   010FD0  6E0B               	movwf	Task_register@task^(0+1280),c
  1229   010FD2  0E10               	movlw	high _printWelcome
  1230   010FD4  6E0C               	movwf	(Task_register@task+1)^(0+1280),c
  1231   010FD6  0E01               	movlw	low (_printWelcome shr (0+16))
  1232   010FD8  6E0D               	movwf	(Task_register@task+2)^(0+1280),c
  1233   010FDA  ECDF  F086         	call	_Task_register	;wreg free
  1234   010FDE                     
  1235                           ;main.c: 29:     Task_register(1000, 1000, printCounter);
  1236   010FDE  0E03               	movlw	3
  1237   010FE0  6E08               	movwf	(Task_register@delay+1)^(0+1280),c
  1238   010FE2  0EE8               	movlw	232
  1239   010FE4  6E07               	movwf	Task_register@delay^(0+1280),c
  1240   010FE6  0E03               	movlw	3
  1241   010FE8  6E0A               	movwf	(Task_register@reload+1)^(0+1280),c
  1242   010FEA  0EE8               	movlw	232
  1243   010FEC  6E09               	movwf	Task_register@reload^(0+1280),c
  1244   010FEE  0E92               	movlw	low _printCounter
  1245   010FF0  6E0B               	movwf	Task_register@task^(0+1280),c
  1246   010FF2  0E15               	movlw	high _printCounter
  1247   010FF4  6E0C               	movwf	(Task_register@task+1)^(0+1280),c
  1248   010FF6  0E01               	movlw	low (_printCounter shr (0+16))
  1249   010FF8  6E0D               	movwf	(Task_register@task+2)^(0+1280),c
  1250   010FFA  ECDF  F086         	call	_Task_register	;wreg free
  1251   010FFE                     l4149:
  1252                           
  1253                           ;main.c: 32:     {;main.c: 33:         Task_execute();
  1254   010FFE  ECA6  F084         	call	_Task_execute	;wreg free
  1255   011002  EFFF  F087         	goto	l4149
  1256   011006  EF0D  F000         	goto	start
  1257   01100A                     __end_of_main:
  1258                           	callstack 0
  1259                           
  1260 ;; *************** function _Task_register *****************
  1261 ;; Defined at:
  1262 ;;		line 62 in file "tasks.c"
  1263 ;; Parameters:    Size  Location     Type
  1264 ;;  delay           2    6[COMRAM] unsigned short 
  1265 ;;  reload          2    8[COMRAM] unsigned short 
  1266 ;;  task            3   10[COMRAM] PTR FTN()void 
  1267 ;;		 -> printCounter(1), printWelcome(1), toggleLed(1), 
  1268 ;; Auto vars:     Size  Location     Type
  1269 ;;  i               1   16[COMRAM] unsigned char 
  1270 ;; Return value:  Size  Location     Type
  1271 ;;                  1    wreg      unsigned char 
  1272 ;; Registers used:
  1273 ;;		wreg, fsr2l, fsr2h, status,2, status,0, prodl, prodh
  1274 ;; Tracked objects:
  1275 ;;		On entry : 0/0
  1276 ;;		On exit  : 0/0
  1277 ;;		Unchanged: 0/0
  1278 ;; Data sizes:     COMRAM   BANK5   BANK6   BANK7   BANK8   BANK9  BANK10  BANK11  BANK12  BANK13  BANK14  BANK15  BANK1
      +6  BANK17  BANK18  BANK19  BANK20  BANK21  BANK22  BANK23  BANK24  BANK25  BANK26  BANK27  BANK28  BANK29  BANK30  BANK3
      +1  BANK32  BANK33  BANK34  BANK35  BANK36
  1279 ;;      Params:         7       0       0       0       0       0       0       0       0       0       0       0       
      +0       0       0       0       0       0       0       0       0       0       0       0       0       0       0       
      +0       0       0       0       0       0
  1280 ;;      Locals:         1       0       0       0       0       0       0       0       0       0       0       0       
      +0       0       0       0       0       0       0       0       0       0       0       0       0       0       0       
      +0       0       0       0       0       0
  1281 ;;      Temps:          3       0       0       0       0       0       0       0       0       0       0       0       
      +0       0       0       0       0       0       0       0       0       0       0       0       0       0       0       
      +0       0       0       0       0       0
  1282 ;;      Totals:        11       0       0       0       0       0       0       0       0       0       0       0       
      +0       0       0       0       0       0       0       0       0       0       0       0       0       0       0       
      +0       0       0       0       0       0
  1283 ;;Total ram usage:       11 bytes
  1284 ;; Hardware stack levels used: 1
  1285 ;; Hardware stack levels required when called: 4
  1286 ;; This function calls:
  1287 ;;		Nothing
  1288 ;; This function is called by:
  1289 ;;		_main
  1290 ;; This function uses a non-reentrant model
  1291 ;;
  1292                           
  1293                           	psect	text1
  1294   010DBE                     __ptext1:
  1295                           	callstack 0
  1296   010DBE                     _Task_register:
  1297                           	callstack 122
  1298   010DBE                     
  1299                           ;tasks.c: 62: uint8_t Task_register(uint16_t delay, uint16_t reload, void (* task)(void)
      +                          );tasks.c: 63: {;tasks.c: 64:     for(uint8_t i = 0; i<10; i++)
  1300   010DBE  0E00               	movlw	0
  1301   010DC0  6E11               	movwf	Task_register@i^(0+1280),c
  1302   010DC2                     l3635:
  1303                           
  1304                           ;tasks.c: 65:     {;tasks.c: 66:         if(tasks[i].taskHandler == ((void*)0))
  1305   010DC2  5011               	movf	Task_register@i^(0+1280),w,c
  1306   010DC4  0D08               	mullw	8
  1307   010DC6  0E05               	movlw	low (_tasks+5)
  1308   010DC8  24F3               	addwf	243,w,c
  1309   010DCA  6ED9               	movwf	fsr2l,c
  1310   010DCC  0E06               	movlw	high (_tasks+5)
  1311   010DCE  20F4               	addwfc	prodh,w,c
  1312   010DD0  6EDA               	movwf	fsr2h,c
  1313   010DD2  50DE               	movf	postinc2,w,c
  1314   010DD4  10DE               	iorwf	postinc2,w,c
  1315   010DD6  10DE               	iorwf	postinc2,w,c
  1316   010DD8  A4D8               	btfss	status,2,c
  1317   010DDA  EFF1  F086         	goto	u2241
  1318   010DDE  EFF3  F086         	goto	u2240
  1319   010DE2                     u2241:
  1320   010DE2  EF25  F087         	goto	l3641
  1321   010DE6                     u2240:
  1322   010DE6                     
  1323                           ;tasks.c: 67:         {;tasks.c: 68:             tasks[i].delay = delay;
  1324   010DE6  5011               	movf	Task_register@i^(0+1280),w,c
  1325   010DE8  0D08               	mullw	8
  1326   010DEA  0E00               	movlw	low _tasks
  1327   010DEC  24F3               	addwf	243,w,c
  1328   010DEE  6ED9               	movwf	fsr2l,c
  1329   010DF0  0E06               	movlw	high _tasks
  1330   010DF2  20F4               	addwfc	prodh,w,c
  1331   010DF4  6EDA               	movwf	fsr2h,c
  1332   010DF6  C507  F4DE         	movff	Task_register@delay,postinc2
  1333   010DFA  C508  F4DD         	movff	Task_register@delay+1,postdec2
  1334                           
  1335                           ;tasks.c: 69:             tasks[i].reload = reload;
  1336   010DFE  5011               	movf	Task_register@i^(0+1280),w,c
  1337   010E00  0D08               	mullw	8
  1338   010E02  0E02               	movlw	low (_tasks+2)
  1339   010E04  24F3               	addwf	243,w,c
  1340   010E06  6ED9               	movwf	fsr2l,c
  1341   010E08  0E06               	movlw	high (_tasks+2)
  1342   010E0A  20F4               	addwfc	prodh,w,c
  1343   010E0C  6EDA               	movwf	fsr2h,c
  1344   010E0E  C509  F4DE         	movff	Task_register@reload,postinc2
  1345   010E12  C50A  F4DD         	movff	Task_register@reload+1,postdec2
  1346                           
  1347                           ;tasks.c: 70:             tasks[i].trigger = 0;
  1348   010E16  5011               	movf	Task_register@i^(0+1280),w,c
  1349   010E18  0D08               	mullw	8
  1350   010E1A  0E04               	movlw	low (_tasks+4)
  1351   010E1C  24F3               	addwf	243,w,c
  1352   010E1E  6ED9               	movwf	fsr2l,c
  1353   010E20  0E06               	movlw	high (_tasks+4)
  1354   010E22  20F4               	addwfc	prodh,w,c
  1355   010E24  6EDA               	movwf	fsr2h,c
  1356   010E26  0E00               	movlw	0
  1357   010E28  6EDF               	movwf	indf2,c
  1358                           
  1359                           ;tasks.c: 71:             tasks[i].taskHandler = task;
  1360   010E2A  5011               	movf	Task_register@i^(0+1280),w,c
  1361   010E2C  0D08               	mullw	8
  1362   010E2E  0E05               	movlw	low (_tasks+5)
  1363   010E30  24F3               	addwf	243,w,c
  1364   010E32  6ED9               	movwf	fsr2l,c
  1365   010E34  0E06               	movlw	high (_tasks+5)
  1366   010E36  20F4               	addwfc	prodh,w,c
  1367   010E38  6EDA               	movwf	fsr2h,c
  1368   010E3A  C50B  F4DE         	movff	Task_register@task,postinc2
  1369   010E3E  C50C  F4DE         	movff	Task_register@task+1,postinc2
  1370   010E42  C50D  F4DE         	movff	Task_register@task+2,postinc2
  1371   010E46  EF2E  F087         	goto	l1061
  1372   010E4A                     l3641:
  1373                           
  1374                           ;tasks.c: 74:     }
  1375   010E4A  2A11               	incf	Task_register@i^(0+1280),f,c
  1376   010E4C  0E09               	movlw	9
  1377   010E4E  6411               	cpfsgt	Task_register@i^(0+1280),c
  1378   010E50  EF2C  F087         	goto	u2251
  1379   010E54  EF2E  F087         	goto	u2250
  1380   010E58                     u2251:
  1381   010E58  EFE1  F086         	goto	l3635
  1382   010E5C                     u2250:
  1383   010E5C                     l1061:
  1384   010E5C  0012               	return		;funcret
  1385   010E5E                     __end_of_Task_register:
  1386                           	callstack 0
  1387                           
  1388 ;; *************** function _Task_execute *****************
  1389 ;; Defined at:
  1390 ;;		line 118 in file "tasks.c"
  1391 ;; Parameters:    Size  Location     Type
  1392 ;;		None
  1393 ;; Auto vars:     Size  Location     Type
  1394 ;;  i               1    0[BANK6 ] unsigned char 
  1395 ;; Return value:  Size  Location     Type
  1396 ;;                  1    wreg      void 
  1397 ;; Registers used:
  1398 ;;		wreg, fsr1l, fsr1h, fsr2l, fsr2h, status,2, status,0, pcl, pclath, pclatu, tosl, tblptrl, tblptrh, tblptru, prodl, p
      +rodh, cstack
  1399 ;; Tracked objects:
  1400 ;;		On entry : 0/0
  1401 ;;		On exit  : 0/0
  1402 ;;		Unchanged: 0/0
  1403 ;; Data sizes:     COMRAM   BANK5   BANK6   BANK7   BANK8   BANK9  BANK10  BANK11  BANK12  BANK13  BANK14  BANK15  BANK1
      +6  BANK17  BANK18  BANK19  BANK20  BANK21  BANK22  BANK23  BANK24  BANK25  BANK26  BANK27  BANK28  BANK29  BANK30  BANK3
      +1  BANK32  BANK33  BANK34  BANK35  BANK36
  1404 ;;      Params:         0       0       0       0       0       0       0       0       0       0       0       0       
      +0       0       0       0       0       0       0       0       0       0       0       0       0       0       0       
      +0       0       0       0       0       0
  1405 ;;      Locals:         0       0       1       0       0       0       0       0       0       0       0       0       
      +0       0       0       0       0       0       0       0       0       0       0       0       0       0       0       
      +0       0       0       0       0       0
  1406 ;;      Temps:          0       3       0       0       0       0       0       0       0       0       0       0       
      +0       0       0       0       0       0       0       0       0       0       0       0       0       0       0       
      +0       0       0       0       0       0
  1407 ;;      Totals:         0       3       1       0       0       0       0       0       0       0       0       0       
      +0       0       0       0       0       0       0       0       0       0       0       0       0       0       0       
      +0       0       0       0       0       0
  1408 ;;Total ram usage:        4 bytes
  1409 ;; Hardware stack levels used: 1
  1410 ;; Hardware stack levels required when called: 14
  1411 ;; This function calls:
  1412 ;;		_printCounter
  1413 ;;		_printWelcome
  1414 ;;		_toggleLed
  1415 ;; This function is called by:
  1416 ;;		_main
  1417 ;; This function uses a non-reentrant model
  1418 ;;
  1419                           
  1420                           	psect	text2
  1421   01094C                     __ptext2:
  1422                           	callstack 0
  1423   01094C                     _Task_execute:
  1424                           	callstack 112
  1425   01094C                     
  1426                           ;tasks.c: 120:     for(uint8_t i = 0; i<10; i++)
  1427   01094C  0E00               	movlw	0
  1428   01094E  0106               	movlb	6	; () banked
  1429   010950  6F90               	movwf	Task_execute@i& (0+255),b
  1430   010952                     l4123:
  1431                           
  1432                           ; BSR set to: 6
  1433                           ;tasks.c: 121:     {;tasks.c: 122:         if(tasks[i].taskHandler && tasks[i].trigger)
  1434   010952  5190               	movf	Task_execute@i& (0+255),w,b
  1435   010954  0D08               	mullw	8
  1436   010956  0E05               	movlw	low (_tasks+5)
  1437   010958  24F3               	addwf	243,w,c
  1438   01095A  6ED9               	movwf	fsr2l,c
  1439   01095C  0E06               	movlw	high (_tasks+5)
  1440   01095E  20F4               	addwfc	prodh,w,c
  1441   010960  6EDA               	movwf	fsr2h,c
  1442   010962  50DE               	movf	postinc2,w,c
  1443   010964  10DE               	iorwf	postinc2,w,c
  1444   010966  10DE               	iorwf	postinc2,w,c
  1445   010968  B4D8               	btfsc	status,2,c
  1446   01096A  EFB9  F084         	goto	u3091
  1447   01096E  EFBB  F084         	goto	u3090
  1448   010972                     u3091:
  1449   010972  EF1C  F085         	goto	l4135
  1450   010976                     u3090:
  1451   010976                     
  1452                           ; BSR set to: 6
  1453   010976  5190               	movf	Task_execute@i& (0+255),w,b
  1454   010978  0D08               	mullw	8
  1455   01097A  0E04               	movlw	low (_tasks+4)
  1456   01097C  24F3               	addwf	243,w,c
  1457   01097E  6ED9               	movwf	fsr2l,c
  1458   010980  0E06               	movlw	high (_tasks+4)
  1459   010982  20F4               	addwfc	prodh,w,c
  1460   010984  6EDA               	movwf	fsr2h,c
  1461   010986  50DF               	movf	indf2,w,c
  1462   010988  B4D8               	btfsc	status,2,c
  1463   01098A  EFC9  F084         	goto	u3101
  1464   01098E  EFCB  F084         	goto	u3100
  1465   010992                     u3101:
  1466   010992  EF1C  F085         	goto	l4135
  1467   010996                     u3100:
  1468   010996                     
  1469                           ; BSR set to: 6
  1470                           ;tasks.c: 123:         {;tasks.c: 124:             tasks[i].trigger = 0;
  1471   010996  5190               	movf	Task_execute@i& (0+255),w,b
  1472   010998  0D08               	mullw	8
  1473   01099A  0E04               	movlw	low (_tasks+4)
  1474   01099C  24F3               	addwf	243,w,c
  1475   01099E  6ED9               	movwf	fsr2l,c
  1476   0109A0  0E06               	movlw	high (_tasks+4)
  1477   0109A2  20F4               	addwfc	prodh,w,c
  1478   0109A4  6EDA               	movwf	fsr2h,c
  1479   0109A6  0E00               	movlw	0
  1480   0109A8  6EDF               	movwf	indf2,c
  1481                           
  1482                           ;tasks.c: 126:             if(tasks[i].taskHandler)
  1483   0109AA  5190               	movf	Task_execute@i& (0+255),w,b
  1484   0109AC  0D08               	mullw	8
  1485   0109AE  0E05               	movlw	low (_tasks+5)
  1486   0109B0  24F3               	addwf	243,w,c
  1487   0109B2  6ED9               	movwf	fsr2l,c
  1488   0109B4  0E06               	movlw	high (_tasks+5)
  1489   0109B6  20F4               	addwfc	prodh,w,c
  1490   0109B8  6EDA               	movwf	fsr2h,c
  1491   0109BA  50DE               	movf	postinc2,w,c
  1492   0109BC  10DE               	iorwf	postinc2,w,c
  1493   0109BE  10DE               	iorwf	postinc2,w,c
  1494   0109C0  B4D8               	btfsc	status,2,c
  1495   0109C2  EFE5  F084         	goto	u3111
  1496   0109C6  EFE7  F084         	goto	u3110
  1497   0109CA                     u3111:
  1498   0109CA  EFFC  F084         	goto	l4131
  1499   0109CE                     u3110:
  1500   0109CE                     
  1501                           ; BSR set to: 6
  1502                           ;tasks.c: 127:             {;tasks.c: 128:                 tasks[i].taskHandler();
  1503   0109CE  5190               	movf	Task_execute@i& (0+255),w,b
  1504   0109D0  0D08               	mullw	8
  1505   0109D2  0E05               	movlw	low (_tasks+5)
  1506   0109D4  24F3               	addwf	243,w,c
  1507   0109D6  6ED9               	movwf	fsr2l,c
  1508   0109D8  0E06               	movlw	high (_tasks+5)
  1509   0109DA  20F4               	addwfc	prodh,w,c
  1510   0109DC  6EDA               	movwf	fsr2h,c
  1511   0109DE  D802               	call	u3128
  1512   0109E0  EFFC  F084         	goto	u3129
  1513   0109E4                     u3128:
  1514   0109E4  0005               	push	
  1515   0109E6  6EFA               	movwf	pclath,c
  1516   0109E8  50DE               	movf	postinc2,w,c
  1517   0109EA  6EFD               	movwf	tosl,c
  1518   0109EC  50DE               	movf	postinc2,w,c
  1519   0109EE  6EFE               	movwf	tosh,c
  1520   0109F0  50DE               	movf	postinc2,w,c
  1521   0109F2  6EFF               	movwf	tosu,c
  1522   0109F4  50FA               	movf	pclath,w,c
  1523   0109F6  0012               	return		;indir
  1524   0109F8                     u3129:
  1525   0109F8                     l4131:
  1526                           
  1527                           ;tasks.c: 131:             if(tasks[i].reload == 0)
  1528   0109F8  0106               	movlb	6	; () banked
  1529   0109FA  5190               	movf	Task_execute@i& (0+255),w,b
  1530   0109FC  0D08               	mullw	8
  1531   0109FE  0E02               	movlw	low (_tasks+2)
  1532   010A00  24F3               	addwf	243,w,c
  1533   010A02  6ED9               	movwf	fsr2l,c
  1534   010A04  0E06               	movlw	high (_tasks+2)
  1535   010A06  20F4               	addwfc	prodh,w,c
  1536   010A08  6EDA               	movwf	fsr2h,c
  1537   010A0A  50DE               	movf	postinc2,w,c
  1538   010A0C  10DE               	iorwf	postinc2,w,c
  1539   010A0E  A4D8               	btfss	status,2,c
  1540   010A10  EF0C  F085         	goto	u3131
  1541   010A14  EF0E  F085         	goto	u3130
  1542   010A18                     u3131:
  1543   010A18  EF1C  F085         	goto	l4135
  1544   010A1C                     u3130:
  1545   010A1C                     
  1546                           ; BSR set to: 6
  1547                           ;tasks.c: 132:             {;tasks.c: 133:                 tasks[i].taskHandler = ((void
      +                          *)0);
  1548   010A1C  5190               	movf	Task_execute@i& (0+255),w,b
  1549   010A1E  0D08               	mullw	8
  1550   010A20  0E05               	movlw	low (_tasks+5)
  1551   010A22  24F3               	addwf	243,w,c
  1552   010A24  6ED9               	movwf	fsr2l,c
  1553   010A26  0E06               	movlw	high (_tasks+5)
  1554   010A28  20F4               	addwfc	prodh,w,c
  1555   010A2A  6EDA               	movwf	fsr2h,c
  1556   010A2C  0E00               	movlw	0
  1557   010A2E  6EDE               	movwf	postinc2,c
  1558   010A30  0E00               	movlw	0
  1559   010A32  6EDE               	movwf	postinc2,c
  1560   010A34  0E00               	movlw	0
  1561   010A36  6EDE               	movwf	postinc2,c
  1562   010A38                     l4135:
  1563                           
  1564                           ; BSR set to: 6
  1565                           ;tasks.c: 136:     }
  1566   010A38  2B90               	incf	Task_execute@i& (0+255),f,b
  1567   010A3A                     
  1568                           ; BSR set to: 6
  1569   010A3A  0E09               	movlw	9
  1570   010A3C  6590               	cpfsgt	Task_execute@i& (0+255),b
  1571   010A3E  EF23  F085         	goto	u3141
  1572   010A42  EF25  F085         	goto	u3140
  1573   010A46                     u3141:
  1574   010A46  EFA9  F084         	goto	l4123
  1575   010A4A                     u3140:
  1576   010A4A                     
  1577                           ; BSR set to: 6
  1578   010A4A  0012               	return		;funcret
  1579   010A4C                     __end_of_Task_execute:
  1580                           	callstack 0
  1581                           
  1582 ;; *************** function _printCounter *****************
  1583 ;; Defined at:
  1584 ;;		line 20 in file "app.c"
  1585 ;; Parameters:    Size  Location     Type
  1586 ;;		None
  1587 ;; Auto vars:     Size  Location     Type
  1588 ;;		None
  1589 ;; Return value:  Size  Location     Type
  1590 ;;                  1    wreg      void 
  1591 ;; Registers used:
  1592 ;;		wreg, fsr1l, fsr1h, fsr2l, fsr2h, status,2, status,0, tblptrl, tblptrh, tblptru, cstack
  1593 ;; Tracked objects:
  1594 ;;		On entry : 0/0
  1595 ;;		On exit  : 0/0
  1596 ;;		Unchanged: 0/0
  1597 ;; Data sizes:     COMRAM   BANK5   BANK6   BANK7   BANK8   BANK9  BANK10  BANK11  BANK12  BANK13  BANK14  BANK15  BANK1
      +6  BANK17  BANK18  BANK19  BANK20  BANK21  BANK22  BANK23  BANK24  BANK25  BANK26  BANK27  BANK28  BANK29  BANK30  BANK3
      +1  BANK32  BANK33  BANK34  BANK35  BANK36
  1598 ;;      Params:         0       0       0       0       0       0       0       0       0       0       0       0       
      +0       0       0       0       0       0       0       0       0       0       0       0       0       0       0       
      +0       0       0       0       0       0
  1599 ;;      Locals:         0       0       0       0       0       0       0       0       0       0       0       0       
      +0       0       0       0       0       0       0       0       0       0       0       0       0       0       0       
      +0       0       0       0       0       0
  1600 ;;      Temps:          0       0       0       0       0       0       0       0       0       0       0       0       
      +0       0       0       0       0       0       0       0       0       0       0       0       0       0       0       
      +0       0       0       0       0       0
  1601 ;;      Totals:         0       0       0       0       0       0       0       0       0       0       0       0       
      +0       0       0       0       0       0       0       0       0       0       0       0       0       0       0       
      +0       0       0       0       0       0
  1602 ;;Total ram usage:        0 bytes
  1603 ;; Hardware stack levels used: 1
  1604 ;; Hardware stack levels required when called: 13
  1605 ;; This function calls:
  1606 ;;		_printf
  1607 ;; This function is called by:
  1608 ;;		_main
  1609 ;;		_Task_execute
  1610 ;; This function uses a non-reentrant model
  1611 ;;
  1612                           
  1613                           	psect	text3
  1614   011592                     __ptext3:
  1615                           	callstack 0
  1616   011592                     _printCounter:
  1617                           	callstack 112
  1618   011592                     
  1619                           ;app.c: 22:     printf("%d\r\n", counter++);
  1620   011592  0EF5               	movlw	low STR_1
  1621   011594  0105               	movlb	5	; () banked
  1622   011596  6FF9               	movwf	printf@fmt& (0+255),b
  1623   011598  0EFF               	movlw	high STR_1
  1624   01159A  6FFA               	movwf	(printf@fmt+1)& (0+255),b
  1625   01159C  C5C8  F5FB         	movff	_counter,?_printf+2
  1626   0115A0  6BFC               	clrf	(?_printf+3)& (0+255),b
  1627   0115A2  EC32  F08A         	call	_printf	;wreg free
  1628   0115A6  0105               	movlb	5	; () banked
  1629   0115A8  2BC8               	incf	_counter& (0+255),f,b
  1630   0115AA                     
  1631                           ; BSR set to: 5
  1632   0115AA  0012               	return		;funcret
  1633   0115AC                     __end_of_printCounter:
  1634                           	callstack 0
  1635                           
  1636 ;; *************** function _printWelcome *****************
  1637 ;; Defined at:
  1638 ;;		line 25 in file "app.c"
  1639 ;; Parameters:    Size  Location     Type
  1640 ;;		None
  1641 ;; Auto vars:     Size  Location     Type
  1642 ;;		None
  1643 ;; Return value:  Size  Location     Type
  1644 ;;                  1    wreg      void 
  1645 ;; Registers used:
  1646 ;;		wreg, fsr1l, fsr1h, fsr2l, fsr2h, status,2, status,0, tblptrl, tblptrh, tblptru, cstack
  1647 ;; Tracked objects:
  1648 ;;		On entry : 0/0
  1649 ;;		On exit  : 0/0
  1650 ;;		Unchanged: 0/0
  1651 ;; Data sizes:     COMRAM   BANK5   BANK6   BANK7   BANK8   BANK9  BANK10  BANK11  BANK12  BANK13  BANK14  BANK15  BANK1
      +6  BANK17  BANK18  BANK19  BANK20  BANK21  BANK22  BANK23  BANK24  BANK25  BANK26  BANK27  BANK28  BANK29  BANK30  BANK3
      +1  BANK32  BANK33  BANK34  BANK35  BANK36
  1652 ;;      Params:         0       0       0       0       0       0       0       0       0       0       0       0       
      +0       0       0       0       0       0       0       0       0       0       0       0       0       0       0       
      +0       0       0       0       0       0
  1653 ;;      Locals:         0       0       0       0       0       0       0       0       0       0       0       0       
      +0       0       0       0       0       0       0       0       0       0       0       0       0       0       0       
      +0       0       0       0       0       0
  1654 ;;      Temps:          0       0       0       0       0       0       0       0       0       0       0       0       
      +0       0       0       0       0       0       0       0       0       0       0       0       0       0       0       
      +0       0       0       0       0       0
  1655 ;;      Totals:         0       0       0       0       0       0       0       0       0       0       0       0       
      +0       0       0       0       0       0       0       0       0       0       0       0       0       0       0       
      +0       0       0       0       0       0
  1656 ;;Total ram usage:        0 bytes
  1657 ;; Hardware stack levels used: 1
  1658 ;; Hardware stack levels required when called: 13
  1659 ;; This function calls:
  1660 ;;		_printf
  1661 ;; This function is called by:
  1662 ;;		_main
  1663 ;;		_Task_execute
  1664 ;; This function uses a non-reentrant model
  1665 ;;
  1666                           
  1667                           	psect	text4
  1668   011084                     __ptext4:
  1669                           	callstack 0
  1670   011084                     _printWelcome:
  1671                           	callstack 112
  1672   011084                     
  1673                           ;app.c: 27:     printf("\033[2J");
  1674   011084  0EFA               	movlw	low STR_2
  1675   011086  0105               	movlb	5	; () banked
  1676   011088  6FF9               	movwf	printf@fmt& (0+255),b
  1677   01108A  0EFF               	movlw	high STR_2
  1678   01108C  6FFA               	movwf	(printf@fmt+1)& (0+255),b
  1679   01108E  EC32  F08A         	call	_printf	;wreg free
  1680                           
  1681                           ;app.c: 28:     printf("\033[0;0f");
  1682   011092  0EE7               	movlw	low STR_3
  1683   011094  0105               	movlb	5	; () banked
  1684   011096  6FF9               	movwf	printf@fmt& (0+255),b
  1685   011098  0EFF               	movlw	high STR_3
  1686   01109A  6FFA               	movwf	(printf@fmt+1)& (0+255),b
  1687   01109C  EC32  F08A         	call	_printf	;wreg free
  1688                           
  1689                           ;app.c: 29:     printf("\033[?25l");
  1690   0110A0  0EEE               	movlw	low STR_4
  1691   0110A2  0105               	movlb	5	; () banked
  1692   0110A4  6FF9               	movwf	printf@fmt& (0+255),b
  1693   0110A6  0EFF               	movlw	high STR_4
  1694   0110A8  6FFA               	movwf	(printf@fmt+1)& (0+255),b
  1695   0110AA  EC32  F08A         	call	_printf	;wreg free
  1696                           
  1697                           ;app.c: 31:     printf("----------------------------------------------------------------
      +                          --\r\n");
  1698   0110AE  0EA2               	movlw	low STR_5
  1699   0110B0  0105               	movlb	5	; () banked
  1700   0110B2  6FF9               	movwf	printf@fmt& (0+255),b
  1701   0110B4  0EFF               	movlw	high STR_5
  1702   0110B6  6FFA               	movwf	(printf@fmt+1)& (0+255),b
  1703   0110B8  EC32  F08A         	call	_printf	;wreg free
  1704                           
  1705                           ;app.c: 32:     printf("Simple Task Manager example                                     
      +                            \r\n");
  1706   0110BC  0E5D               	movlw	low STR_6
  1707   0110BE  0105               	movlb	5	; () banked
  1708   0110C0  6FF9               	movwf	printf@fmt& (0+255),b
  1709   0110C2  0EFF               	movlw	high STR_6
  1710   0110C4  6FFA               	movwf	(printf@fmt+1)& (0+255),b
  1711   0110C6  EC32  F08A         	call	_printf	;wreg free
  1712                           
  1713                           ;app.c: 33:     printf("----------------------------------------------------------------
      +                          --\r\n");
  1714   0110CA  0EA2               	movlw	low STR_5
  1715   0110CC  0105               	movlb	5	; () banked
  1716   0110CE  6FF9               	movwf	printf@fmt& (0+255),b
  1717   0110D0  0EFF               	movlw	high STR_5
  1718   0110D2  6FFA               	movwf	(printf@fmt+1)& (0+255),b
  1719   0110D4  EC32  F08A         	call	_printf	;wreg free
  1720                           
  1721                           ;app.c: 34:     printf("\r\n");
  1722   0110D8  0E9F               	movlw	low (STR_6+66)
  1723   0110DA  0105               	movlb	5	; () banked
  1724   0110DC  6FF9               	movwf	printf@fmt& (0+255),b
  1725   0110DE  0EFF               	movlw	high (STR_6+66)
  1726   0110E0  6FFA               	movwf	(printf@fmt+1)& (0+255),b
  1727   0110E2  EC32  F08A         	call	_printf	;wreg free
  1728   0110E6  0012               	return		;funcret
  1729   0110E8                     __end_of_printWelcome:
  1730                           	callstack 0
  1731                           
  1732 ;; *************** function _toggleLed *****************
  1733 ;; Defined at:
  1734 ;;		line 15 in file "app.c"
  1735 ;; Parameters:    Size  Location     Type
  1736 ;;		None
  1737 ;; Auto vars:     Size  Location     Type
  1738 ;;		None
  1739 ;; Return value:  Size  Location     Type
  1740 ;;                  1    wreg      void 
  1741 ;; Registers used:
  1742 ;;		wreg, status,2, status,0
  1743 ;; Tracked objects:
  1744 ;;		On entry : 0/0
  1745 ;;		On exit  : 0/0
  1746 ;;		Unchanged: 0/0
  1747 ;; Data sizes:     COMRAM   BANK5   BANK6   BANK7   BANK8   BANK9  BANK10  BANK11  BANK12  BANK13  BANK14  BANK15  BANK1
      +6  BANK17  BANK18  BANK19  BANK20  BANK21  BANK22  BANK23  BANK24  BANK25  BANK26  BANK27  BANK28  BANK29  BANK30  BANK3
      +1  BANK32  BANK33  BANK34  BANK35  BANK36
  1748 ;;      Params:         0       0       0       0       0       0       0       0       0       0       0       0       
      +0       0       0       0       0       0       0       0       0       0       0       0       0       0       0       
      +0       0       0       0       0       0
  1749 ;;      Locals:         0       0       0       0       0       0       0       0       0       0       0       0       
      +0       0       0       0       0       0       0       0       0       0       0       0       0       0       0       
      +0       0       0       0       0       0
  1750 ;;      Temps:          1       0       0       0       0       0       0       0       0       0       0       0       
      +0       0       0       0       0       0       0       0       0       0       0       0       0       0       0       
      +0       0       0       0       0       0
  1751 ;;      Totals:         1       0       0       0       0       0       0       0       0       0       0       0       
      +0       0       0       0       0       0       0       0       0       0       0       0       0       0       0       
      +0       0       0       0       0       0
  1752 ;;Total ram usage:        1 bytes
  1753 ;; Hardware stack levels used: 1
  1754 ;; Hardware stack levels required when called: 4
  1755 ;; This function calls:
  1756 ;;		Nothing
  1757 ;; This function is called by:
  1758 ;;		_main
  1759 ;;		_Task_execute
  1760 ;; This function uses a non-reentrant model
  1761 ;;
  1762                           
  1763                           	psect	text5
  1764   01143C                     __ptext5:
  1765                           	callstack 0
  1766   01143C                     _toggleLed:
  1767                           	callstack 121
  1768   01143C  B6C3               	btfsc	195,3,c	;volatile
  1769   01143E  EF23  F08A         	goto	u3081
  1770   011442  EF26  F08A         	goto	u3080
  1771   011446                     u3081:
  1772   011446  0E01               	movlw	1
  1773   011448  EF27  F08A         	goto	u3086
  1774   01144C                     u3080:
  1775   01144C  0E00               	movlw	0
  1776   01144E                     u3086:
  1777   01144E  0AFF               	xorlw	255
  1778   011450  6E07               	movwf	??_toggleLed^(0+1280),c
  1779   011452  4607               	rlncf	??_toggleLed^(0+1280),f,c
  1780   011454  4607               	rlncf	??_toggleLed^(0+1280),f,c
  1781   011456  4607               	rlncf	??_toggleLed^(0+1280),f,c
  1782   011458  50C3               	movf	195,w,c	;volatile
  1783   01145A  1807               	xorwf	??_toggleLed^(0+1280),w,c
  1784   01145C  0BF7               	andlw	-9
  1785   01145E  1807               	xorwf	??_toggleLed^(0+1280),w,c
  1786   011460  6EC3               	movwf	195,c	;volatile
  1787   011462  0012               	return		;funcret
  1788   011464                     __end_of_toggleLed:
  1789                           	callstack 0
  1790                           
  1791 ;; *************** function _printf *****************
  1792 ;; Defined at:
  1793 ;;		line 5 in file "C:\Program Files\Microchip\xc8\v2.40\pic\sources\c99\common\printf.c"
  1794 ;; Parameters:    Size  Location     Type
  1795 ;;  fmt             2   16[BANK5 ] PTR const unsigned char 
  1796 ;;		 -> STR_8(3), STR_7(69), STR_6(69), STR_5(69), 
  1797 ;;		 -> STR_4(7), STR_3(7), STR_2(5), STR_1(5), 
  1798 ;; Auto vars:     Size  Location     Type
  1799 ;;  ap              2   81[COMRAM] PTR void [1]
  1800 ;;		 -> ?_printf(2), 
  1801 ;;  ret             2    0        int 
  1802 ;; Return value:  Size  Location     Type
  1803 ;;                  2   16[BANK5 ] int 
  1804 ;; Registers used:
  1805 ;;		wreg, fsr1l, fsr1h, fsr2l, fsr2h, status,2, status,0, tblptrl, tblptrh, tblptru, cstack
  1806 ;; Tracked objects:
  1807 ;;		On entry : 0/0
  1808 ;;		On exit  : 0/0
  1809 ;;		Unchanged: 0/0
  1810 ;; Data sizes:     COMRAM   BANK5   BANK6   BANK7   BANK8   BANK9  BANK10  BANK11  BANK12  BANK13  BANK14  BANK15  BANK1
      +6  BANK17  BANK18  BANK19  BANK20  BANK21  BANK22  BANK23  BANK24  BANK25  BANK26  BANK27  BANK28  BANK29  BANK30  BANK3
      +1  BANK32  BANK33  BANK34  BANK35  BANK36
  1811 ;;      Params:         0       4       0       0       0       0       0       0       0       0       0       0       
      +0       0       0       0       0       0       0       0       0       0       0       0       0       0       0       
      +0       0       0       0       0       0
  1812 ;;      Locals:         2       0       0       0       0       0       0       0       0       0       0       0       
      +0       0       0       0       0       0       0       0       0       0       0       0       0       0       0       
      +0       0       0       0       0       0
  1813 ;;      Temps:          0       0       0       0       0       0       0       0       0       0       0       0       
      +0       0       0       0       0       0       0       0       0       0       0       0       0       0       0       
      +0       0       0       0       0       0
  1814 ;;      Totals:         2       4       0       0       0       0       0       0       0       0       0       0       
      +0       0       0       0       0       0       0       0       0       0       0       0       0       0       0       
      +0       0       0       0       0       0
  1815 ;;Total ram usage:        6 bytes
  1816 ;; Hardware stack levels used: 1
  1817 ;; Hardware stack levels required when called: 12
  1818 ;; This function calls:
  1819 ;;		_vfprintf
  1820 ;; This function is called by:
  1821 ;;		_printCounter
  1822 ;;		_printWelcome
  1823 ;; This function uses a non-reentrant model
  1824 ;;
  1825                           
  1826                           	psect	text6
  1827   011464                     __ptext6:
  1828                           	callstack 0
  1829   011464                     _printf:
  1830                           	callstack 112
  1831   011464  0EFB               	movlw	low (?_printf+2)
  1832   011466  6E52               	movwf	printf@ap^(0+1280),c
  1833   011468  0E05               	movlw	high (?_printf+2)
  1834   01146A  6E53               	movwf	(printf@ap+1)^(0+1280),c
  1835   01146C  0E00               	movlw	0
  1836   01146E  0105               	movlb	5	; () banked
  1837   011470  6FF3               	movwf	vfprintf@fp& (0+255),b
  1838   011472  0E00               	movlw	0
  1839   011474  6FF4               	movwf	(vfprintf@fp+1)& (0+255),b
  1840   011476  C5F9  F5F5         	movff	printf@fmt,vfprintf@fmt
  1841   01147A  C5FA  F5F6         	movff	printf@fmt+1,vfprintf@fmt+1
  1842   01147E  0E52               	movlw	low printf@ap
  1843   011480  6FF7               	movwf	vfprintf@ap& (0+255),b
  1844   011482  0E05               	movlw	high printf@ap
  1845   011484  6FF8               	movwf	(vfprintf@ap+1)& (0+255),b
  1846   011486  ECA5  F088         	call	_vfprintf	;wreg free
  1847   01148A  0012               	return		;funcret
  1848   01148C                     __end_of_printf:
  1849                           	callstack 0
  1850                           
  1851 ;; *************** function _vfprintf *****************
  1852 ;; Defined at:
  1853 ;;		line 1520 in file "C:\Program Files\Microchip\xc8\v2.40\pic\sources\c99\common\doprnt.c"
  1854 ;; Parameters:    Size  Location     Type
  1855 ;;  fp              2   10[BANK5 ] PTR struct _IO_FILE
  1856 ;;		 -> NULL(0), 
  1857 ;;  fmt             2   12[BANK5 ] PTR const unsigned char 
  1858 ;;		 -> STR_8(3), STR_7(69), STR_6(69), STR_5(69), 
  1859 ;;		 -> STR_4(7), STR_3(7), STR_2(5), STR_1(5), 
  1860 ;;  ap              2   14[BANK5 ] PTR PTR void 
  1861 ;;		 -> printf@ap(2), 
  1862 ;; Auto vars:     Size  Location     Type
  1863 ;;  cfmt            2   79[COMRAM] PTR unsigned char 
  1864 ;;		 -> STR_8(3), STR_7(69), STR_6(69), STR_5(69), 
  1865 ;;		 -> STR_4(7), STR_3(7), STR_2(5), STR_1(5), 
  1866 ;; Return value:  Size  Location     Type
  1867 ;;                  2   10[BANK5 ] int 
  1868 ;; Registers used:
  1869 ;;		wreg, fsr1l, fsr1h, fsr2l, fsr2h, status,2, status,0, tblptrl, tblptrh, tblptru, cstack
  1870 ;; Tracked objects:
  1871 ;;		On entry : 0/0
  1872 ;;		On exit  : 0/0
  1873 ;;		Unchanged: 0/0
  1874 ;; Data sizes:     COMRAM   BANK5   BANK6   BANK7   BANK8   BANK9  BANK10  BANK11  BANK12  BANK13  BANK14  BANK15  BANK1
      +6  BANK17  BANK18  BANK19  BANK20  BANK21  BANK22  BANK23  BANK24  BANK25  BANK26  BANK27  BANK28  BANK29  BANK30  BANK3
      +1  BANK32  BANK33  BANK34  BANK35  BANK36
  1875 ;;      Params:         0       6       0       0       0       0       0       0       0       0       0       0       
      +0       0       0       0       0       0       0       0       0       0       0       0       0       0       0       
      +0       0       0       0       0       0
  1876 ;;      Locals:         2       0       0       0       0       0       0       0       0       0       0       0       
      +0       0       0       0       0       0       0       0       0       0       0       0       0       0       0       
      +0       0       0       0       0       0
  1877 ;;      Temps:          0       0       0       0       0       0       0       0       0       0       0       0       
      +0       0       0       0       0       0       0       0       0       0       0       0       0       0       0       
      +0       0       0       0       0       0
  1878 ;;      Totals:         2       6       0       0       0       0       0       0       0       0       0       0       
      +0       0       0       0       0       0       0       0       0       0       0       0       0       0       0       
      +0       0       0       0       0       0
  1879 ;;Total ram usage:        8 bytes
  1880 ;; Hardware stack levels used: 1
  1881 ;; Hardware stack levels required when called: 11
  1882 ;; This function calls:
  1883 ;;		_vfpfcnvrt
  1884 ;; This function is called by:
  1885 ;;		_printf
  1886 ;; This function uses a non-reentrant model
  1887 ;;
  1888                           
  1889                           	psect	text7
  1890   01114A                     __ptext7:
  1891                           	callstack 0
  1892   01114A                     _vfprintf:
  1893                           	callstack 112
  1894   01114A                     
  1895                           ;C:\Program Files\Microchip\xc8\v2.40\pic\sources\c99\common\doprnt.c: 1520: int vfprint
      +                          f(FILE *fp, const char *fmt, va_list ap);C:\Program Files\Microchip\xc8\v2.40\pic\source
      +                          s\c99\common\doprnt.c: 1521: {;C:\Program Files\Microchip\xc8\v2.40\pic\sources\c99\comm
      +                          on\doprnt.c: 1523:     char *cfmt;;C:\Program Files\Microchip\xc8\v2.40\pic\sources\c99\
      +                          common\doprnt.c: 1525:     cfmt = (char *)fmt;
  1896   01114A  C5F5  F550         	movff	vfprintf@fmt,vfprintf@cfmt
  1897   01114E  C5F6  F551         	movff	vfprintf@fmt+1,vfprintf@cfmt+1
  1898                           
  1899                           ;C:\Program Files\Microchip\xc8\v2.40\pic\sources\c99\common\doprnt.c: 1529:     while (
      +                          *cfmt) {
  1900   011152  EFB9  F088         	goto	l4097
  1901   011156                     l4095:
  1902                           
  1903                           ;C:\Program Files\Microchip\xc8\v2.40\pic\sources\c99\common\doprnt.c: 1533:    vfpfcnvr
      +                          t(fp, &cfmt, ap);
  1904   011156  C5F3  F548         	movff	vfprintf@fp,vfpfcnvrt@fp
  1905   01115A  C5F4  F549         	movff	vfprintf@fp+1,vfpfcnvrt@fp+1
  1906   01115E  0E50               	movlw	low vfprintf@cfmt
  1907   011160  6E4A               	movwf	vfpfcnvrt@fmt^(0+1280),c
  1908   011162  0E05               	movlw	high vfprintf@cfmt
  1909   011164  6E4B               	movwf	(vfpfcnvrt@fmt+1)^(0+1280),c
  1910   011166  C5F7  F54C         	movff	vfprintf@ap,vfpfcnvrt@ap
  1911   01116A  C5F8  F54D         	movff	vfprintf@ap+1,vfpfcnvrt@ap+1
  1912   01116E  EC75  F083         	call	_vfpfcnvrt	;wreg free
  1913   011172                     l4097:
  1914                           
  1915                           ;C:\Program Files\Microchip\xc8\v2.40\pic\sources\c99\common\doprnt.c: 1529:     while (
      +                          *cfmt) {
  1916   011172  C550  F4F6         	movff	vfprintf@cfmt,tblptrl
  1917   011176  C551  F4F7         	movff	vfprintf@cfmt+1,tblptrh
  1918   01117A                     	if	0	;tblptru may be non-zero
  1919   01117A                     	endif
  1920   01117A                     	if	1	;Program memory is > 0xFFFF, there are 3 active tblptr bytes
  1921   01117A  0E00               	movlw	low (__mediumconst shr (0+16))
  1922   01117C  6EF8               	movwf	tblptru,c
  1923   01117E                     	endif
  1924   01117E  0008               	tblrd		*
  1925   011180  50F5               	movf	tablat,w,c
  1926   011182  0900               	iorlw	0
  1927   011184  A4D8               	btfss	status,2,c
  1928   011186  EFC7  F088         	goto	u3071
  1929   01118A  EFC9  F088         	goto	u3070
  1930   01118E                     u3071:
  1931   01118E  EFAB  F088         	goto	l4095
  1932   011192                     u3070:
  1933   011192                     
  1934                           ;C:\Program Files\Microchip\xc8\v2.40\pic\sources\c99\common\doprnt.c: 1538:  return 0;
  1935   011192  0E00               	movlw	0
  1936   011194  0105               	movlb	5	; () banked
  1937   011196  6FF4               	movwf	(?_vfprintf+1)& (0+255),b
  1938   011198  0E00               	movlw	0
  1939   01119A  6FF3               	movwf	?_vfprintf& (0+255),b
  1940   01119C                     
  1941                           ; BSR set to: 5
  1942   01119C  0012               	return		;funcret
  1943   01119E                     __end_of_vfprintf:
  1944                           	callstack 0
  1945                           
  1946 ;; *************** function _vfpfcnvrt *****************
  1947 ;; Defined at:
  1948 ;;		line 1007 in file "C:\Program Files\Microchip\xc8\v2.40\pic\sources\c99\common\doprnt.c"
  1949 ;; Parameters:    Size  Location     Type
  1950 ;;  fp              2   71[COMRAM] PTR struct _IO_FILE
  1951 ;;		 -> NULL(0), 
  1952 ;;  fmt             2   73[COMRAM] PTR PTR unsigned char 
  1953 ;;		 -> vfprintf@cfmt(2), 
  1954 ;;  ap              2   75[COMRAM] PTR PTR void 
  1955 ;;		 -> printf@ap(2), 
  1956 ;; Auto vars:     Size  Location     Type
  1957 ;;  convarg         8    0[BANK5 ] struct .
  1958 ;;  cp              2    8[BANK5 ] PTR unsigned char 
  1959 ;;		 -> STR_8(3), STR_7(69), STR_6(69), STR_5(69), 
  1960 ;;		 -> STR_4(7), STR_3(7), STR_2(5), STR_1(5), 
  1961 ;;  i               2    0        int 
  1962 ;;  done            2    0        int 
  1963 ;;  c               1    0        unsigned char 
  1964 ;; Return value:  Size  Location     Type
  1965 ;;                  1    wreg      void 
  1966 ;; Registers used:
  1967 ;;		wreg, fsr1l, fsr1h, fsr2l, fsr2h, status,2, status,0, tblptrl, tblptrh, tblptru, cstack
  1968 ;; Tracked objects:
  1969 ;;		On entry : 0/0
  1970 ;;		On exit  : 0/0
  1971 ;;		Unchanged: 0/0
  1972 ;; Data sizes:     COMRAM   BANK5   BANK6   BANK7   BANK8   BANK9  BANK10  BANK11  BANK12  BANK13  BANK14  BANK15  BANK1
      +6  BANK17  BANK18  BANK19  BANK20  BANK21  BANK22  BANK23  BANK24  BANK25  BANK26  BANK27  BANK28  BANK29  BANK30  BANK3
      +1  BANK32  BANK33  BANK34  BANK35  BANK36
  1973 ;;      Params:         6       0       0       0       0       0       0       0       0       0       0       0       
      +0       0       0       0       0       0       0       0       0       0       0       0       0       0       0       
      +0       0       0       0       0       0
  1974 ;;      Locals:         0      10       0       0       0       0       0       0       0       0       0       0       
      +0       0       0       0       0       0       0       0       0       0       0       0       0       0       0       
      +0       0       0       0       0       0
  1975 ;;      Temps:          2       0       0       0       0       0       0       0       0       0       0       0       
      +0       0       0       0       0       0       0       0       0       0       0       0       0       0       0       
      +0       0       0       0       0       0
  1976 ;;      Totals:         8      10       0       0       0       0       0       0       0       0       0       0       
      +0       0       0       0       0       0       0       0       0       0       0       0       0       0       0       
      +0       0       0       0       0       0
  1977 ;;Total ram usage:       18 bytes
  1978 ;; Hardware stack levels used: 1
  1979 ;; Hardware stack levels required when called: 10
  1980 ;; This function calls:
  1981 ;;		_dtoa
  1982 ;;		_fputc
  1983 ;; This function is called by:
  1984 ;;		_vfprintf
  1985 ;; This function uses a non-reentrant model
  1986 ;;
  1987                           
  1988                           	psect	text8
  1989   0106EA                     __ptext8:
  1990                           	callstack 0
  1991   0106EA                     _vfpfcnvrt:
  1992                           	callstack 112
  1993   0106EA                     
  1994                           ;C:\Program Files\Microchip\xc8\v2.40\pic\sources\c99\common\doprnt.c: 1007: vfpfcnvrt(F
      +                          ILE *fp, char *fmt[], va_list ap);C:\Program Files\Microchip\xc8\v2.40\pic\sources\c99\c
      +                          ommon\doprnt.c: 1008: {;C:\Program Files\Microchip\xc8\v2.40\pic\sources\c99\common\dopr
      +                          nt.c: 1009:     char c, *cp;;C:\Program Files\Microchip\xc8\v2.40\pic\sources\c99\common
      +                          \doprnt.c: 1010:     int done, i;;C:\Program Files\Microchip\xc8\v2.40\pic\sources\c99\c
      +                          ommon\doprnt.c: 1016:  } convarg;;C:\Program Files\Microchip\xc8\v2.40\pic\sources\c99\c
      +                          ommon\doprnt.c: 1019:     if ((*fmt)[0] == '%') {
  1995   0106EA  C54A  F4D9         	movff	vfpfcnvrt@fmt,fsr2l
  1996   0106EE  C54B  F4DA         	movff	vfpfcnvrt@fmt+1,fsr2h
  1997   0106F2  C4DE F4F6          	movff	postinc2,tblptrl
  1998   0106F6  C4DD F4F7          	movff	postdec2,tblptrh
  1999   0106FA                     	if	0	;tblptru may be non-zero
  2000   0106FA                     	endif
  2001   0106FA                     	if	1	;Program memory is > 0xFFFF, there are 3 active tblptr bytes
  2002   0106FA  0E00               	movlw	low (__mediumconst shr (0+16))
  2003   0106FC  6EF8               	movwf	tblptru,c
  2004   0106FE                     	endif
  2005   0106FE  0008               	tblrd		*
  2006   010700  50F5               	movf	tablat,w,c
  2007   010702  0A25               	xorlw	37
  2008   010704  A4D8               	btfss	status,2,c
  2009   010706  EF87  F083         	goto	u3041
  2010   01070A  EF89  F083         	goto	u3040
  2011   01070E                     u3041:
  2012   01070E  EF0D  F084         	goto	l4087
  2013   010712                     u3040:
  2014   010712                     
  2015                           ;C:\Program Files\Microchip\xc8\v2.40\pic\sources\c99\common\doprnt.c: 1020:         ++*
      +                          fmt;
  2016   010712  C54A  F4D9         	movff	vfpfcnvrt@fmt,fsr2l
  2017   010716  C54B  F4DA         	movff	vfpfcnvrt@fmt+1,fsr2h
  2018   01071A  2ADE               	incf	postinc2,f,c
  2019   01071C  0E00               	movlw	0
  2020   01071E  22DD               	addwfc	postdec2,f,c
  2021   010720                     
  2022                           ;C:\Program Files\Microchip\xc8\v2.40\pic\sources\c99\common\doprnt.c: 1022:         fla
      +                          gs = width = 0;
  2023   010720  0E00               	movlw	0
  2024   010722  0105               	movlb	5	; () banked
  2025   010724  6FC2               	movwf	(_width+1)& (0+255),b
  2026   010726  0E00               	movlw	0
  2027   010728  6FC1               	movwf	_width& (0+255),b
  2028   01072A  C5C1  F5C7         	movff	_width,_flags
  2029   01072E                     
  2030                           ; BSR set to: 5
  2031                           ;C:\Program Files\Microchip\xc8\v2.40\pic\sources\c99\common\doprnt.c: 1023:         pre
      +                          c = -1;
  2032   01072E  69C3               	setf	_prec& (0+255),b
  2033   010730  69C4               	setf	(_prec+1)& (0+255),b
  2034   010732                     
  2035                           ; BSR set to: 5
  2036                           ;C:\Program Files\Microchip\xc8\v2.40\pic\sources\c99\common\doprnt.c: 1117:   cp = *fmt
      +                          ;
  2037   010732  C54A  F4D9         	movff	vfpfcnvrt@fmt,fsr2l
  2038   010736  C54B  F4DA         	movff	vfpfcnvrt@fmt+1,fsr2h
  2039   01073A  C4DE F5F1          	movff	postinc2,vfpfcnvrt@cp
  2040   01073E  C4DD F5F2          	movff	postdec2,vfpfcnvrt@cp+1
  2041   010742                     
  2042                           ; BSR set to: 5
  2043                           ;C:\Program Files\Microchip\xc8\v2.40\pic\sources\c99\common\doprnt.c: 1187:   if (*cp =
      +                          = 'd' || *cp == 'i') {
  2044   010742  C5F1  F4F6         	movff	vfpfcnvrt@cp,tblptrl
  2045   010746  C5F2  F4F7         	movff	vfpfcnvrt@cp+1,tblptrh
  2046   01074A                     	if	0	;tblptru may be non-zero
  2047   01074A                     	endif
  2048   01074A                     	if	1	;Program memory is > 0xFFFF, there are 3 active tblptr bytes
  2049   01074A  0E00               	movlw	low (__mediumconst shr (0+16))
  2050   01074C  6EF8               	movwf	tblptru,c
  2051   01074E                     	endif
  2052   01074E  0008               	tblrd		*
  2053   010750  50F5               	movf	tablat,w,c
  2054   010752  0A64               	xorlw	100
  2055   010754  B4D8               	btfsc	status,2,c
  2056   010756  EFAF  F083         	goto	u3051
  2057   01075A  EFB1  F083         	goto	u3050
  2058   01075E                     u3051:
  2059   01075E  EFC1  F083         	goto	l4077
  2060   010762                     u3050:
  2061   010762                     
  2062                           ; BSR set to: 5
  2063   010762  C5F1  F4F6         	movff	vfpfcnvrt@cp,tblptrl
  2064   010766  C5F2  F4F7         	movff	vfpfcnvrt@cp+1,tblptrh
  2065   01076A                     	if	0	;tblptru may be non-zero
  2066   01076A                     	endif
  2067   01076A                     	if	1	;Program memory is > 0xFFFF, there are 3 active tblptr bytes
  2068   01076A  0E00               	movlw	low (__mediumconst shr (0+16))
  2069   01076C  6EF8               	movwf	tblptru,c
  2070   01076E                     	endif
  2071   01076E  0008               	tblrd		*
  2072   010770  50F5               	movf	tablat,w,c
  2073   010772  0A69               	xorlw	105
  2074   010774  A4D8               	btfss	status,2,c
  2075   010776  EFBF  F083         	goto	u3061
  2076   01077A  EFC1  F083         	goto	u3060
  2077   01077E                     u3061:
  2078   01077E  EF04  F084         	goto	l4083
  2079   010782                     u3060:
  2080   010782                     l4077:
  2081                           
  2082                           ; BSR set to: 5
  2083                           ;C:\Program Files\Microchip\xc8\v2.40\pic\sources\c99\common\doprnt.c: 1230:    convarg.
      +                          ll = (long long)(int)(*(int *)__va_arg(*(int **)ap, (int)0));
  2084   010782  C54C  F4D9         	movff	vfpfcnvrt@ap,fsr2l
  2085   010786  C54D  F4DA         	movff	vfpfcnvrt@ap+1,fsr2h
  2086   01078A  C4DF F54E          	movff	indf2,??_vfpfcnvrt
  2087   01078E  0E02               	movlw	2
  2088   010790  26DE               	addwf	postinc2,f,c
  2089   010792  C4DF F54F          	movff	indf2,??_vfpfcnvrt+1
  2090   010796  0E00               	movlw	0
  2091   010798  22DD               	addwfc	postdec2,f,c
  2092   01079A  C54E  F4D9         	movff	??_vfpfcnvrt,fsr2l
  2093   01079E  C54F  F4DA         	movff	??_vfpfcnvrt+1,fsr2h
  2094   0107A2  C4DE F5E9          	movff	postinc2,vfpfcnvrt@convarg
  2095   0107A6  C4DD F5EA          	movff	postdec2,vfpfcnvrt@convarg+1
  2096   0107AA  0E00               	movlw	0
  2097   0107AC  BFEA               	btfsc	(vfpfcnvrt@convarg+1)& (0+255),7,b
  2098   0107AE  0EFF               	movlw	-1
  2099   0107B0  6FEB               	movwf	(vfpfcnvrt@convarg+2)& (0+255),b
  2100   0107B2  6FEC               	movwf	(vfpfcnvrt@convarg+3)& (0+255),b
  2101   0107B4  6FED               	movwf	(vfpfcnvrt@convarg+4)& (0+255),b
  2102   0107B6  6FEE               	movwf	(vfpfcnvrt@convarg+5)& (0+255),b
  2103   0107B8  6FEF               	movwf	(vfpfcnvrt@convarg+6)& (0+255),b
  2104   0107BA  6FF0               	movwf	(vfpfcnvrt@convarg+7)& (0+255),b
  2105                           
  2106                           ;C:\Program Files\Microchip\xc8\v2.40\pic\sources\c99\common\doprnt.c: 1232:    *fmt = c
      +                          p+1;
  2107   0107BC  0E01               	movlw	1
  2108   0107BE  25F1               	addwf	vfpfcnvrt@cp& (0+255),w,b
  2109   0107C0  6E4E               	movwf	??_vfpfcnvrt^(0+1280),c
  2110   0107C2  0E00               	movlw	0
  2111   0107C4  21F2               	addwfc	(vfpfcnvrt@cp+1)& (0+255),w,b
  2112   0107C6  6E4F               	movwf	(??_vfpfcnvrt+1)^(0+1280),c
  2113   0107C8  C54A  F4D9         	movff	vfpfcnvrt@fmt,fsr2l
  2114   0107CC  C54B  F4DA         	movff	vfpfcnvrt@fmt+1,fsr2h
  2115   0107D0  C54E  F4DE         	movff	??_vfpfcnvrt,postinc2
  2116   0107D4  C54F  F4DD         	movff	??_vfpfcnvrt+1,postdec2
  2117   0107D8                     
  2118                           ; BSR set to: 5
  2119                           ;C:\Program Files\Microchip\xc8\v2.40\pic\sources\c99\common\doprnt.c: 1233:    return (
      +                          void) dtoa(fp, convarg.ll);;	Return value of _vfpfcnvrt is never used
  2120   0107D8  C548  F525         	movff	vfpfcnvrt@fp,dtoa@fp
  2121   0107DC  C549  F526         	movff	vfpfcnvrt@fp+1,dtoa@fp+1
  2122   0107E0  C5E9  F527         	movff	vfpfcnvrt@convarg,dtoa@d
  2123   0107E4  C5EA  F528         	movff	vfpfcnvrt@convarg+1,dtoa@d+1
  2124   0107E8  C5EB  F529         	movff	vfpfcnvrt@convarg+2,dtoa@d+2
  2125   0107EC  C5EC  F52A         	movff	vfpfcnvrt@convarg+3,dtoa@d+3
  2126   0107F0  C5ED  F52B         	movff	vfpfcnvrt@convarg+4,dtoa@d+4
  2127   0107F4  C5EE  F52C         	movff	vfpfcnvrt@convarg+5,dtoa@d+5
  2128   0107F8  C5EF  F52D         	movff	vfpfcnvrt@convarg+6,dtoa@d+6
  2129   0107FC  C5F0  F52E         	movff	vfpfcnvrt@convarg+7,dtoa@d+7
  2130   010800  EC00  F080         	call	_dtoa	;wreg free
  2131   010804  EF23  F084         	goto	l1810
  2132   010808                     l4083:
  2133                           
  2134                           ;C:\Program Files\Microchip\xc8\v2.40\pic\sources\c99\common\doprnt.c: 1509:         ++*
      +                          fmt;
  2135   010808  C54A  F4D9         	movff	vfpfcnvrt@fmt,fsr2l
  2136   01080C  C54B  F4DA         	movff	vfpfcnvrt@fmt+1,fsr2h
  2137   010810  2ADE               	incf	postinc2,f,c
  2138   010812  0E00               	movlw	0
  2139   010814  22DD               	addwfc	postdec2,f,c
  2140   010816  EF23  F084         	goto	l1810
  2141   01081A                     l4087:
  2142                           
  2143                           ;C:\Program Files\Microchip\xc8\v2.40\pic\sources\c99\common\doprnt.c: 1514:     fputc((
      +                          int)(*fmt)[0], fp);
  2144   01081A  C54A  F4D9         	movff	vfpfcnvrt@fmt,fsr2l
  2145   01081E  C54B  F4DA         	movff	vfpfcnvrt@fmt+1,fsr2h
  2146   010822  C4DE F4F6          	movff	postinc2,tblptrl
  2147   010826  C4DD F4F7          	movff	postdec2,tblptrh
  2148   01082A                     	if	0	;tblptru may be non-zero
  2149   01082A                     	endif
  2150   01082A                     	if	1	;Program memory is > 0xFFFF, there are 3 active tblptr bytes
  2151   01082A  0E00               	movlw	low (__mediumconst shr (0+16))
  2152   01082C  6EF8               	movwf	tblptru,c
  2153   01082E                     	endif
  2154   01082E  0008               	tblrd		*
  2155   010830  50F5               	movf	tablat,w,c
  2156   010832  6E0A               	movwf	fputc@c^(0+1280),c
  2157   010834  6A0B               	clrf	(fputc@c+1)^(0+1280),c
  2158   010836  C548  F50C         	movff	vfpfcnvrt@fp,fputc@fp
  2159   01083A  C549  F50D         	movff	vfpfcnvrt@fp+1,fputc@fp+1
  2160   01083E  EC2F  F087         	call	_fputc	;wreg free
  2161   010842  EF04  F084         	goto	l4083
  2162   010846                     l1810:
  2163   010846  0012               	return		;funcret
  2164   010848                     __end_of_vfpfcnvrt:
  2165                           	callstack 0
  2166                           
  2167 ;; *************** function _dtoa *****************
  2168 ;; Defined at:
  2169 ;;		line 443 in file "C:\Program Files\Microchip\xc8\v2.40\pic\sources\c99\common\doprnt.c"
  2170 ;; Parameters:    Size  Location     Type
  2171 ;;  fp              2   36[COMRAM] PTR struct _IO_FILE
  2172 ;;		 -> NULL(0), 
  2173 ;;  d               8   38[COMRAM] long long 
  2174 ;; Auto vars:     Size  Location     Type
  2175 ;;  n               8   60[COMRAM] long long 
  2176 ;;  i               2   69[COMRAM] int 
  2177 ;;  w               2   58[COMRAM] int 
  2178 ;;  p               2   56[COMRAM] int 
  2179 ;;  s               1   68[COMRAM] unsigned char 
  2180 ;; Return value:  Size  Location     Type
  2181 ;;                  1    wreg      void 
  2182 ;; Registers used:
  2183 ;;		wreg, fsr1l, fsr1h, fsr2l, fsr2h, status,2, status,0, cstack
  2184 ;; Tracked objects:
  2185 ;;		On entry : 0/0
  2186 ;;		On exit  : 0/0
  2187 ;;		Unchanged: 0/0
  2188 ;; Data sizes:     COMRAM   BANK5   BANK6   BANK7   BANK8   BANK9  BANK10  BANK11  BANK12  BANK13  BANK14  BANK15  BANK1
      +6  BANK17  BANK18  BANK19  BANK20  BANK21  BANK22  BANK23  BANK24  BANK25  BANK26  BANK27  BANK28  BANK29  BANK30  BANK3
      +1  BANK32  BANK33  BANK34  BANK35  BANK36
  2189 ;;      Params:        10       0       0       0       0       0       0       0       0       0       0       0       
      +0       0       0       0       0       0       0       0       0       0       0       0       0       0       0       
      +0       0       0       0       0       0
  2190 ;;      Locals:        17       0       0       0       0       0       0       0       0       0       0       0       
      +0       0       0       0       0       0       0       0       0       0       0       0       0       0       0       
      +0       0       0       0       0       0
  2191 ;;      Temps:          8       0       0       0       0       0       0       0       0       0       0       0       
      +0       0       0       0       0       0       0       0       0       0       0       0       0       0       0       
      +0       0       0       0       0       0
  2192 ;;      Totals:        35       0       0       0       0       0       0       0       0       0       0       0       
      +0       0       0       0       0       0       0       0       0       0       0       0       0       0       0       
      +0       0       0       0       0       0
  2193 ;;Total ram usage:       35 bytes
  2194 ;; Hardware stack levels used: 1
  2195 ;; Hardware stack levels required when called: 9
  2196 ;; This function calls:
  2197 ;;		___aodiv
  2198 ;;		___aomod
  2199 ;;		_abs
  2200 ;;		_pad
  2201 ;; This function is called by:
  2202 ;;		_vfpfcnvrt
  2203 ;; This function uses a non-reentrant model
  2204 ;;
  2205                           
  2206                           	psect	text9
  2207   010000                     __ptext9:
  2208                           	callstack 0
  2209   010000                     _dtoa:
  2210                           	callstack 112
  2211   010000                     
  2212                           ;C:\Program Files\Microchip\xc8\v2.40\pic\sources\c99\common\doprnt.c: 443: static void 
      +                          dtoa(FILE *fp, long long d);C:\Program Files\Microchip\xc8\v2.40\pic\sources\c99\common\
      +                          doprnt.c: 444: {;C:\Program Files\Microchip\xc8\v2.40\pic\sources\c99\common\doprnt.c: 4
      +                          45:  char s;;C:\Program Files\Microchip\xc8\v2.40\pic\sources\c99\common\doprnt.c: 446: 
      +                              int i, p, w;;C:\Program Files\Microchip\xc8\v2.40\pic\sources\c99\common\doprnt.c: 4
      +                          47:     long long n;;C:\Program Files\Microchip\xc8\v2.40\pic\sources\c99\common\doprnt.
      +                          c: 450:     n = d;
  2213   010000  C527  F53D         	movff	dtoa@d,dtoa@n
  2214   010004  C528  F53E         	movff	dtoa@d+1,dtoa@n+1
  2215   010008  C529  F53F         	movff	dtoa@d+2,dtoa@n+2
  2216   01000C  C52A  F540         	movff	dtoa@d+3,dtoa@n+3
  2217   010010  C52B  F541         	movff	dtoa@d+4,dtoa@n+4
  2218   010014  C52C  F542         	movff	dtoa@d+5,dtoa@n+5
  2219   010018  C52D  F543         	movff	dtoa@d+6,dtoa@n+6
  2220   01001C  C52E  F544         	movff	dtoa@d+7,dtoa@n+7
  2221   010020                     
  2222                           ;C:\Program Files\Microchip\xc8\v2.40\pic\sources\c99\common\doprnt.c: 451:     s = n < 
      +                          0 ? 1 : 0;
  2223   010020  BE44               	btfsc	(dtoa@n+7)^(0+1280),7,c
  2224   010022  EF15  F080         	goto	u2941
  2225   010026  EF18  F080         	goto	u2940
  2226   01002A                     u2941:
  2227   01002A  0E01               	movlw	1
  2228   01002C  EF19  F080         	goto	u2950
  2229   010030                     u2940:
  2230   010030  0E00               	movlw	0
  2231   010032                     u2950:
  2232   010032  6E45               	movwf	dtoa@s^(0+1280),c
  2233   010034                     
  2234                           ;C:\Program Files\Microchip\xc8\v2.40\pic\sources\c99\common\doprnt.c: 452:     if (s) {
  2235   010034  5045               	movf	dtoa@s^(0+1280),w,c
  2236   010036  B4D8               	btfsc	status,2,c
  2237   010038  EF20  F080         	goto	u2961
  2238   01003C  EF22  F080         	goto	u2960
  2239   010040                     u2961:
  2240   010040  EF32  F080         	goto	l4019
  2241   010044                     u2960:
  2242   010044                     
  2243                           ;C:\Program Files\Microchip\xc8\v2.40\pic\sources\c99\common\doprnt.c: 453:         n = 
      +                          -n;
  2244   010044  1E44               	comf	(dtoa@n+7)^(0+1280),f,c
  2245   010046  1E43               	comf	(dtoa@n+6)^(0+1280),f,c
  2246   010048  1E42               	comf	(dtoa@n+5)^(0+1280),f,c
  2247   01004A  1E41               	comf	(dtoa@n+4)^(0+1280),f,c
  2248   01004C  1E40               	comf	(dtoa@n+3)^(0+1280),f,c
  2249   01004E  1E3F               	comf	(dtoa@n+2)^(0+1280),f,c
  2250   010050  1E3E               	comf	(dtoa@n+1)^(0+1280),f,c
  2251   010052  6C3D               	negf	dtoa@n^(0+1280),c
  2252   010054  0E00               	movlw	0
  2253   010056  223E               	addwfc	(dtoa@n+1)^(0+1280),f,c
  2254   010058  223F               	addwfc	(dtoa@n+2)^(0+1280),f,c
  2255   01005A  2240               	addwfc	(dtoa@n+3)^(0+1280),f,c
  2256   01005C  2241               	addwfc	(dtoa@n+4)^(0+1280),f,c
  2257   01005E  2242               	addwfc	(dtoa@n+5)^(0+1280),f,c
  2258   010060  2243               	addwfc	(dtoa@n+6)^(0+1280),f,c
  2259   010062  2244               	addwfc	(dtoa@n+7)^(0+1280),f,c
  2260   010064                     l4019:
  2261                           
  2262                           ;C:\Program Files\Microchip\xc8\v2.40\pic\sources\c99\common\doprnt.c: 462:     p = (0 <
      +                           prec) ? prec : 1;
  2263   010064  0105               	movlb	5	; () banked
  2264   010066  BFC4               	btfsc	(_prec+1)& (0+255),7,b
  2265   010068  EF40  F080         	goto	u2970
  2266   01006C  51C4               	movf	(_prec+1)& (0+255),w,b
  2267   01006E  E106               	bnz	u2971
  2268   010070  05C3               	decf	_prec& (0+255),w,b
  2269   010072  B0D8               	btfsc	status,0,c
  2270   010074  EF3E  F080         	goto	u2971
  2271   010078  EF40  F080         	goto	u2970
  2272   01007C                     u2971:
  2273   01007C  EF46  F080         	goto	l1789
  2274   010080                     u2970:
  2275   010080                     
  2276                           ; BSR set to: 5
  2277   010080  0E00               	movlw	0
  2278   010082  6E3A               	movwf	(dtoa@p+1)^(0+1280),c
  2279   010084  0E01               	movlw	1
  2280   010086  6E39               	movwf	dtoa@p^(0+1280),c
  2281   010088  EF4A  F080         	goto	l1791
  2282   01008C                     l1789:
  2283                           
  2284                           ; BSR set to: 5
  2285   01008C  C5C3  F539         	movff	_prec,dtoa@p
  2286   010090  C5C4  F53A         	movff	_prec+1,dtoa@p+1
  2287   010094                     l1791:
  2288                           
  2289                           ; BSR set to: 5
  2290                           ;C:\Program Files\Microchip\xc8\v2.40\pic\sources\c99\common\doprnt.c: 463:     w = widt
      +                          h;
  2291   010094  C5C1  F53B         	movff	_width,dtoa@w
  2292   010098  C5C2  F53C         	movff	_width+1,dtoa@w+1
  2293   01009C                     
  2294                           ; BSR set to: 5
  2295                           ;C:\Program Files\Microchip\xc8\v2.40\pic\sources\c99\common\doprnt.c: 464:     if (s
  2296   01009C  5045               	movf	dtoa@s^(0+1280),w,c
  2297   01009E  B4D8               	btfsc	status,2,c
  2298   0100A0  EF54  F080         	goto	u2981
  2299   0100A4  EF56  F080         	goto	u2980
  2300   0100A8                     u2981:
  2301   0100A8  EF6D  F080         	goto	l1792
  2302   0100AC                     u2980:
  2303   0100AC                     
  2304                           ; BSR set to: 5
  2305                           ;C:\Program Files\Microchip\xc8\v2.40\pic\sources\c99\common\doprnt.c: 468:     ) {;C:\P
      +                          rogram Files\Microchip\xc8\v2.40\pic\sources\c99\common\doprnt.c: 469:         --w;
  2306   0100AC  063B               	decf	dtoa@w^(0+1280),f,c
  2307   0100AE  A0D8               	btfss	status,0,c
  2308   0100B0  063C               	decf	(dtoa@w+1)^(0+1280),f,c
  2309   0100B2                     
  2310                           ; BSR set to: 5
  2311                           ;C:\Program Files\Microchip\xc8\v2.40\pic\sources\c99\common\doprnt.c: 470:   s = s ? '-
      +                          ' : '+';
  2312   0100B2  5045               	movf	dtoa@s^(0+1280),w,c
  2313   0100B4  A4D8               	btfss	status,2,c
  2314   0100B6  EF5F  F080         	goto	u2991
  2315   0100BA  EF61  F080         	goto	u2990
  2316   0100BE                     u2991:
  2317   0100BE  EF67  F080         	goto	l4031
  2318   0100C2                     u2990:
  2319   0100C2                     
  2320                           ; BSR set to: 5
  2321   0100C2  0E00               	movlw	0
  2322   0100C4  6E38               	movwf	(_dtoa$2853+1)^(0+1280),c
  2323   0100C6  0E2B               	movlw	43
  2324   0100C8  6E37               	movwf	_dtoa$2853^(0+1280),c
  2325   0100CA  EF6B  F080         	goto	l4033
  2326   0100CE                     l4031:
  2327                           
  2328                           ; BSR set to: 5
  2329   0100CE  0E00               	movlw	0
  2330   0100D0  6E38               	movwf	(_dtoa$2853+1)^(0+1280),c
  2331   0100D2  0E2D               	movlw	45
  2332   0100D4  6E37               	movwf	_dtoa$2853^(0+1280),c
  2333   0100D6                     l4033:
  2334                           
  2335                           ; BSR set to: 5
  2336   0100D6  C537  F545         	movff	_dtoa$2853,dtoa@s
  2337   0100DA                     l1792:
  2338                           
  2339                           ; BSR set to: 5
  2340                           ;C:\Program Files\Microchip\xc8\v2.40\pic\sources\c99\common\doprnt.c: 480:     i = size
      +                          of(dbuf) - 1;
  2341   0100DA  0E00               	movlw	0
  2342   0100DC  6E47               	movwf	(dtoa@i+1)^(0+1280),c
  2343   0100DE  0E1F               	movlw	31
  2344   0100E0  6E46               	movwf	dtoa@i^(0+1280),c
  2345   0100E2                     
  2346                           ; BSR set to: 5
  2347                           ;C:\Program Files\Microchip\xc8\v2.40\pic\sources\c99\common\doprnt.c: 481:     dbuf[i] 
      +                          = '\0';
  2348   0100E2  0E00               	movlw	0
  2349   0100E4  6FE8               	movwf	(_dbuf+31)& (0+255),b
  2350                           
  2351                           ;C:\Program Files\Microchip\xc8\v2.40\pic\sources\c99\common\doprnt.c: 482:     while (!
      +                          (i < 1) && (n || (0 < p)
  2352   0100E6  EFF1  F080         	goto	l4047
  2353   0100EA                     l4037:
  2354                           
  2355                           ;C:\Program Files\Microchip\xc8\v2.40\pic\sources\c99\common\doprnt.c: 486:     )) {;C:\
      +                          Program Files\Microchip\xc8\v2.40\pic\sources\c99\common\doprnt.c: 487:         --i;
  2356   0100EA  0646               	decf	dtoa@i^(0+1280),f,c
  2357   0100EC  A0D8               	btfss	status,0,c
  2358   0100EE  0647               	decf	(dtoa@i+1)^(0+1280),f,c
  2359   0100F0                     
  2360                           ;C:\Program Files\Microchip\xc8\v2.40\pic\sources\c99\common\doprnt.c: 488:         dbuf
      +                          [i] = (char)((int)'0' + abs(n % 10));
  2361   0100F0  0EC9               	movlw	low _dbuf
  2362   0100F2  2446               	addwf	dtoa@i^(0+1280),w,c
  2363   0100F4  6ED9               	movwf	fsr2l,c
  2364   0100F6  0E05               	movlw	high _dbuf
  2365   0100F8  2047               	addwfc	(dtoa@i+1)^(0+1280),w,c
  2366   0100FA  6EDA               	movwf	fsr2h,c
  2367   0100FC  C53D  F507         	movff	dtoa@n,___aomod@dividend
  2368   010100  C53E  F508         	movff	dtoa@n+1,___aomod@dividend+1
  2369   010104  C53F  F509         	movff	dtoa@n+2,___aomod@dividend+2
  2370   010108  C540  F50A         	movff	dtoa@n+3,___aomod@dividend+3
  2371   01010C  C541  F50B         	movff	dtoa@n+4,___aomod@dividend+4
  2372   010110  C542  F50C         	movff	dtoa@n+5,___aomod@dividend+5
  2373   010114  C543  F50D         	movff	dtoa@n+6,___aomod@dividend+6
  2374   010118  C544  F50E         	movff	dtoa@n+7,___aomod@dividend+7
  2375   01011C  0E0A               	movlw	10
  2376   01011E  6E0F               	movwf	___aomod@divisor^(0+1280),c
  2377   010120  0E00               	movlw	0
  2378   010122  6E10               	movwf	(___aomod@divisor+1)^(0+1280),c
  2379   010124  0E00               	movlw	0
  2380   010126  6E11               	movwf	(___aomod@divisor+2)^(0+1280),c
  2381   010128  0E00               	movlw	0
  2382   01012A  6E12               	movwf	(___aomod@divisor+3)^(0+1280),c
  2383   01012C  0E00               	movlw	0
  2384   01012E  6E13               	movwf	(___aomod@divisor+4)^(0+1280),c
  2385   010130  0E00               	movlw	0
  2386   010132  6E14               	movwf	(___aomod@divisor+5)^(0+1280),c
  2387   010134  0E00               	movlw	0
  2388   010136  6E15               	movwf	(___aomod@divisor+6)^(0+1280),c
  2389   010138  0E00               	movlw	0
  2390   01013A  6E16               	movwf	(___aomod@divisor+7)^(0+1280),c
  2391   01013C  ECC3  F082         	call	___aomod	;wreg free
  2392   010140  C507  F52F         	movff	?___aomod,??_dtoa
  2393   010144  C508  F530         	movff	?___aomod+1,??_dtoa+1
  2394   010148  C509  F531         	movff	?___aomod+2,??_dtoa+2
  2395   01014C  C50A  F532         	movff	?___aomod+3,??_dtoa+3
  2396   010150  C50B  F533         	movff	?___aomod+4,??_dtoa+4
  2397   010154  C50C  F534         	movff	?___aomod+5,??_dtoa+5
  2398   010158  C50D  F535         	movff	?___aomod+6,??_dtoa+6
  2399   01015C  C50E  F536         	movff	?___aomod+7,??_dtoa+7
  2400   010160  C52F  F519         	movff	??_dtoa,abs@a
  2401   010164  C530  F51A         	movff	??_dtoa+1,abs@a+1
  2402   010168  EC37  F089         	call	_abs	;wreg free
  2403   01016C  5019               	movf	?_abs^(0+1280),w,c
  2404   01016E  0F30               	addlw	48
  2405   010170  6EDF               	movwf	indf2,c
  2406   010172                     
  2407                           ;C:\Program Files\Microchip\xc8\v2.40\pic\sources\c99\common\doprnt.c: 489:         --p;
  2408   010172  0639               	decf	dtoa@p^(0+1280),f,c
  2409   010174  A0D8               	btfss	status,0,c
  2410   010176  063A               	decf	(dtoa@p+1)^(0+1280),f,c
  2411   010178                     
  2412                           ;C:\Program Files\Microchip\xc8\v2.40\pic\sources\c99\common\doprnt.c: 490:         --w;
  2413   010178  063B               	decf	dtoa@w^(0+1280),f,c
  2414   01017A  A0D8               	btfss	status,0,c
  2415   01017C  063C               	decf	(dtoa@w+1)^(0+1280),f,c
  2416   01017E                     
  2417                           ;C:\Program Files\Microchip\xc8\v2.40\pic\sources\c99\common\doprnt.c: 491:         n = 
      +                          n / 10;
  2418   01017E  C53D  F507         	movff	dtoa@n,___aodiv@dividend
  2419   010182  C53E  F508         	movff	dtoa@n+1,___aodiv@dividend+1
  2420   010186  C53F  F509         	movff	dtoa@n+2,___aodiv@dividend+2
  2421   01018A  C540  F50A         	movff	dtoa@n+3,___aodiv@dividend+3
  2422   01018E  C541  F50B         	movff	dtoa@n+4,___aodiv@dividend+4
  2423   010192  C542  F50C         	movff	dtoa@n+5,___aodiv@dividend+5
  2424   010196  C543  F50D         	movff	dtoa@n+6,___aodiv@dividend+6
  2425   01019A  C544  F50E         	movff	dtoa@n+7,___aodiv@dividend+7
  2426   01019E  0E0A               	movlw	10
  2427   0101A0  6E0F               	movwf	___aodiv@divisor^(0+1280),c
  2428   0101A2  0E00               	movlw	0
  2429   0101A4  6E10               	movwf	(___aodiv@divisor+1)^(0+1280),c
  2430   0101A6  0E00               	movlw	0
  2431   0101A8  6E11               	movwf	(___aodiv@divisor+2)^(0+1280),c
  2432   0101AA  0E00               	movlw	0
  2433   0101AC  6E12               	movwf	(___aodiv@divisor+3)^(0+1280),c
  2434   0101AE  0E00               	movlw	0
  2435   0101B0  6E13               	movwf	(___aodiv@divisor+4)^(0+1280),c
  2436   0101B2  0E00               	movlw	0
  2437   0101B4  6E14               	movwf	(___aodiv@divisor+5)^(0+1280),c
  2438   0101B6  0E00               	movlw	0
  2439   0101B8  6E15               	movwf	(___aodiv@divisor+6)^(0+1280),c
  2440   0101BA  0E00               	movlw	0
  2441   0101BC  6E16               	movwf	(___aodiv@divisor+7)^(0+1280),c
  2442   0101BE  EC3E  F081         	call	___aodiv	;wreg free
  2443   0101C2  C507  F53D         	movff	?___aodiv,dtoa@n
  2444   0101C6  C508  F53E         	movff	?___aodiv+1,dtoa@n+1
  2445   0101CA  C509  F53F         	movff	?___aodiv+2,dtoa@n+2
  2446   0101CE  C50A  F540         	movff	?___aodiv+3,dtoa@n+3
  2447   0101D2  C50B  F541         	movff	?___aodiv+4,dtoa@n+4
  2448   0101D6  C50C  F542         	movff	?___aodiv+5,dtoa@n+5
  2449   0101DA  C50D  F543         	movff	?___aodiv+6,dtoa@n+6
  2450   0101DE  C50E  F544         	movff	?___aodiv+7,dtoa@n+7
  2451   0101E2                     l4047:
  2452                           
  2453                           ;C:\Program Files\Microchip\xc8\v2.40\pic\sources\c99\common\doprnt.c: 482:     while (!
      +                          (i < 1) && (n || (0 < p)
  2454   0101E2  BE47               	btfsc	(dtoa@i+1)^(0+1280),7,c
  2455   0101E4  EFFC  F080         	goto	u3001
  2456   0101E8  5047               	movf	(dtoa@i+1)^(0+1280),w,c
  2457   0101EA  E108               	bnz	u3000
  2458   0101EC  0446               	decf	dtoa@i^(0+1280),w,c
  2459   0101EE  A0D8               	btfss	status,0,c
  2460   0101F0  EFFC  F080         	goto	u3001
  2461   0101F4  EFFE  F080         	goto	u3000
  2462   0101F8                     u3001:
  2463   0101F8  EF1A  F081         	goto	l4053
  2464   0101FC                     u3000:
  2465   0101FC  503D               	movf	dtoa@n^(0+1280),w,c
  2466   0101FE  103E               	iorwf	(dtoa@n+1)^(0+1280),w,c
  2467   010200  103F               	iorwf	(dtoa@n+2)^(0+1280),w,c
  2468   010202  1040               	iorwf	(dtoa@n+3)^(0+1280),w,c
  2469   010204  1041               	iorwf	(dtoa@n+4)^(0+1280),w,c
  2470   010206  1042               	iorwf	(dtoa@n+5)^(0+1280),w,c
  2471   010208  1043               	iorwf	(dtoa@n+6)^(0+1280),w,c
  2472   01020A  1044               	iorwf	(dtoa@n+7)^(0+1280),w,c
  2473   01020C  A4D8               	btfss	status,2,c
  2474   01020E  EF0B  F081         	goto	u3011
  2475   010212  EF0D  F081         	goto	u3010
  2476   010216                     u3011:
  2477   010216  EF75  F080         	goto	l4037
  2478   01021A                     u3010:
  2479   01021A  BE3A               	btfsc	(dtoa@p+1)^(0+1280),7,c
  2480   01021C  EF1A  F081         	goto	u3020
  2481   010220  503A               	movf	(dtoa@p+1)^(0+1280),w,c
  2482   010222  E106               	bnz	u3021
  2483   010224  0439               	decf	dtoa@p^(0+1280),w,c
  2484   010226  B0D8               	btfsc	status,0,c
  2485   010228  EF18  F081         	goto	u3021
  2486   01022C  EF1A  F081         	goto	u3020
  2487   010230                     u3021:
  2488   010230  EF75  F080         	goto	l4037
  2489   010234                     u3020:
  2490   010234                     l4053:
  2491                           
  2492                           ;C:\Program Files\Microchip\xc8\v2.40\pic\sources\c99\common\doprnt.c: 495:     if (s !=
      +                           0) {
  2493   010234  5045               	movf	dtoa@s^(0+1280),w,c
  2494   010236  B4D8               	btfsc	status,2,c
  2495   010238  EF20  F081         	goto	u3031
  2496   01023C  EF22  F081         	goto	u3030
  2497   010240                     u3031:
  2498   010240  EF2D  F081         	goto	l4059
  2499   010244                     u3030:
  2500   010244                     
  2501                           ;C:\Program Files\Microchip\xc8\v2.40\pic\sources\c99\common\doprnt.c: 496:         --i;
  2502   010244  0646               	decf	dtoa@i^(0+1280),f,c
  2503   010246  A0D8               	btfss	status,0,c
  2504   010248  0647               	decf	(dtoa@i+1)^(0+1280),f,c
  2505   01024A                     
  2506                           ;C:\Program Files\Microchip\xc8\v2.40\pic\sources\c99\common\doprnt.c: 497:         dbuf
      +                          [i] = s;
  2507   01024A  0EC9               	movlw	low _dbuf
  2508   01024C  2446               	addwf	dtoa@i^(0+1280),w,c
  2509   01024E  6ED9               	movwf	fsr2l,c
  2510   010250  0E05               	movlw	high _dbuf
  2511   010252  2047               	addwfc	(dtoa@i+1)^(0+1280),w,c
  2512   010254  6EDA               	movwf	fsr2h,c
  2513   010256  C545  F4DF         	movff	dtoa@s,indf2
  2514   01025A                     l4059:
  2515                           
  2516                           ;C:\Program Files\Microchip\xc8\v2.40\pic\sources\c99\common\doprnt.c: 501:     return (
      +                          void) pad(fp, &dbuf[i], w);
  2517   01025A  C525  F51A         	movff	dtoa@fp,pad@fp
  2518   01025E  C526  F51B         	movff	dtoa@fp+1,pad@fp+1
  2519   010262  0EC9               	movlw	low _dbuf
  2520   010264  2446               	addwf	dtoa@i^(0+1280),w,c
  2521   010266  6E1C               	movwf	pad@buf^(0+1280),c
  2522   010268  0E05               	movlw	high _dbuf
  2523   01026A  2047               	addwfc	(dtoa@i+1)^(0+1280),w,c
  2524   01026C  6E1D               	movwf	(pad@buf+1)^(0+1280),c
  2525   01026E  C53B  F51E         	movff	dtoa@w,pad@p
  2526   010272  C53C  F51F         	movff	dtoa@w+1,pad@p+1
  2527   010276  EC05  F088         	call	_pad	;wreg free
  2528   01027A  0012               	return		;funcret
  2529   01027C                     __end_of_dtoa:
  2530                           	callstack 0
  2531                           
  2532 ;; *************** function _pad *****************
  2533 ;; Defined at:
  2534 ;;		line 133 in file "C:\Program Files\Microchip\xc8\v2.40\pic\sources\c99\common\doprnt.c"
  2535 ;; Parameters:    Size  Location     Type
  2536 ;;  fp              2   25[COMRAM] PTR struct _IO_FILE
  2537 ;;		 -> NULL(0), 
  2538 ;;  buf             2   27[COMRAM] PTR unsigned char 
  2539 ;;		 -> dbuf(32), 
  2540 ;;  p               2   29[COMRAM] int 
  2541 ;; Auto vars:     Size  Location     Type
  2542 ;;  w               2   34[COMRAM] int 
  2543 ;;  i               2   32[COMRAM] int 
  2544 ;; Return value:  Size  Location     Type
  2545 ;;                  1    wreg      void 
  2546 ;; Registers used:
  2547 ;;		wreg, fsr1l, fsr1h, fsr2l, fsr2h, status,2, status,0, cstack
  2548 ;; Tracked objects:
  2549 ;;		On entry : 0/0
  2550 ;;		On exit  : 0/0
  2551 ;;		Unchanged: 0/0
  2552 ;; Data sizes:     COMRAM   BANK5   BANK6   BANK7   BANK8   BANK9  BANK10  BANK11  BANK12  BANK13  BANK14  BANK15  BANK1
      +6  BANK17  BANK18  BANK19  BANK20  BANK21  BANK22  BANK23  BANK24  BANK25  BANK26  BANK27  BANK28  BANK29  BANK30  BANK3
      +1  BANK32  BANK33  BANK34  BANK35  BANK36
  2553 ;;      Params:         6       0       0       0       0       0       0       0       0       0       0       0       
      +0       0       0       0       0       0       0       0       0       0       0       0       0       0       0       
      +0       0       0       0       0       0
  2554 ;;      Locals:         4       0       0       0       0       0       0       0       0       0       0       0       
      +0       0       0       0       0       0       0       0       0       0       0       0       0       0       0       
      +0       0       0       0       0       0
  2555 ;;      Temps:          1       0       0       0       0       0       0       0       0       0       0       0       
      +0       0       0       0       0       0       0       0       0       0       0       0       0       0       0       
      +0       0       0       0       0       0
  2556 ;;      Totals:        11       0       0       0       0       0       0       0       0       0       0       0       
      +0       0       0       0       0       0       0       0       0       0       0       0       0       0       0       
      +0       0       0       0       0       0
  2557 ;;Total ram usage:       11 bytes
  2558 ;; Hardware stack levels used: 1
  2559 ;; Hardware stack levels required when called: 8
  2560 ;; This function calls:
  2561 ;;		_fputc
  2562 ;;		_fputs
  2563 ;; This function is called by:
  2564 ;;		_dtoa
  2565 ;; This function uses a non-reentrant model
  2566 ;;
  2567                           
  2568                           	psect	text10
  2569   01100A                     __ptext10:
  2570                           	callstack 0
  2571   01100A                     _pad:
  2572                           	callstack 112
  2573   01100A                     
  2574                           ;C:\Program Files\Microchip\xc8\v2.40\pic\sources\c99\common\doprnt.c: 133: static void 
      +                          pad(FILE *fp, char *buf, int p);C:\Program Files\Microchip\xc8\v2.40\pic\sources\c99\com
      +                          mon\doprnt.c: 134: {;C:\Program Files\Microchip\xc8\v2.40\pic\sources\c99\common\doprnt.
      +                          c: 135:     int i, w;;C:\Program Files\Microchip\xc8\v2.40\pic\sources\c99\common\doprnt
      +                          .c: 145:     w = (p < 0) ? 0 : p;
  2575   01100A  BE1F               	btfsc	(pad@p+1)^(0+1280),7,c
  2576   01100C  EF0A  F088         	goto	u2911
  2577   011010  EF0C  F088         	goto	u2910
  2578   011014                     u2911:
  2579   011014  EF12  F088         	goto	l3997
  2580   011018                     u2910:
  2581   011018  C51E  F523         	movff	pad@p,pad@w
  2582   01101C  C51F  F524         	movff	pad@p+1,pad@w+1
  2583   011020  EF16  F088         	goto	l1780
  2584   011024                     l3997:
  2585   011024  0E00               	movlw	0
  2586   011026  6E24               	movwf	(pad@w+1)^(0+1280),c
  2587   011028  0E00               	movlw	0
  2588   01102A  6E23               	movwf	pad@w^(0+1280),c
  2589   01102C                     l1780:
  2590                           
  2591                           ;C:\Program Files\Microchip\xc8\v2.40\pic\sources\c99\common\doprnt.c: 146:     i = 0;
  2592   01102C  0E00               	movlw	0
  2593   01102E  6E22               	movwf	(pad@i+1)^(0+1280),c
  2594   011030  0E00               	movlw	0
  2595   011032  6E21               	movwf	pad@i^(0+1280),c
  2596                           
  2597                           ;C:\Program Files\Microchip\xc8\v2.40\pic\sources\c99\common\doprnt.c: 147:     while (i
      +                           < w) {
  2598   011034  EF28  F088         	goto	l4003
  2599   011038                     l3999:
  2600                           
  2601                           ;C:\Program Files\Microchip\xc8\v2.40\pic\sources\c99\common\doprnt.c: 148:         fput
      +                          c(' ', fp);
  2602   011038  0E00               	movlw	0
  2603   01103A  6E0B               	movwf	(fputc@c+1)^(0+1280),c
  2604   01103C  0E20               	movlw	32
  2605   01103E  6E0A               	movwf	fputc@c^(0+1280),c
  2606   011040  C51A  F50C         	movff	pad@fp,fputc@fp
  2607   011044  C51B  F50D         	movff	pad@fp+1,fputc@fp+1
  2608   011048  EC2F  F087         	call	_fputc	;wreg free
  2609   01104C                     
  2610                           ;C:\Program Files\Microchip\xc8\v2.40\pic\sources\c99\common\doprnt.c: 149:         ++i;
  2611   01104C  4A21               	infsnz	pad@i^(0+1280),f,c
  2612   01104E  2A22               	incf	(pad@i+1)^(0+1280),f,c
  2613   011050                     l4003:
  2614                           
  2615                           ;C:\Program Files\Microchip\xc8\v2.40\pic\sources\c99\common\doprnt.c: 147:     while (i
      +                           < w) {
  2616   011050  5023               	movf	pad@w^(0+1280),w,c
  2617   011052  5C21               	subwf	pad@i^(0+1280),w,c
  2618   011054  5022               	movf	(pad@i+1)^(0+1280),w,c
  2619   011056  0A80               	xorlw	128
  2620   011058  6E20               	movwf	??_pad^(0+1280),c
  2621   01105A  5024               	movf	(pad@w+1)^(0+1280),w,c
  2622   01105C  0A80               	xorlw	128
  2623   01105E  5820               	subwfb	??_pad^(0+1280),w,c
  2624   011060  A0D8               	btfss	status,0,c
  2625   011062  EF35  F088         	goto	u2921
  2626   011066  EF37  F088         	goto	u2920
  2627   01106A                     u2921:
  2628   01106A  EF1C  F088         	goto	l3999
  2629   01106E                     u2920:
  2630   01106E                     
  2631                           ;C:\Program Files\Microchip\xc8\v2.40\pic\sources\c99\common\doprnt.c: 156:         fput
      +                          s((const char *)buf, fp);
  2632   01106E  C51C  F513         	movff	pad@buf,fputs@s
  2633   011072  C51D  F514         	movff	pad@buf+1,fputs@s+1
  2634   011076  C51A  F515         	movff	pad@fp,fputs@fp
  2635   01107A  C51B  F516         	movff	pad@fp+1,fputs@fp+1
  2636   01107E  ECF4  F088         	call	_fputs	;wreg free
  2637   011082  0012               	return		;funcret
  2638   011084                     __end_of_pad:
  2639                           	callstack 0
  2640                           
  2641 ;; *************** function _fputs *****************
  2642 ;; Defined at:
  2643 ;;		line 8 in file "C:\Program Files\Microchip\xc8\v2.40\pic\sources\c99\common\nf_fputs.c"
  2644 ;; Parameters:    Size  Location     Type
  2645 ;;  s               2   18[COMRAM] PTR const unsigned char 
  2646 ;;		 -> dbuf(32), 
  2647 ;;  fp              2   20[COMRAM] PTR struct _IO_FILE
  2648 ;;		 -> NULL(0), 
  2649 ;; Auto vars:     Size  Location     Type
  2650 ;;  i               2   23[COMRAM] int 
  2651 ;;  c               1   22[COMRAM] unsigned char 
  2652 ;; Return value:  Size  Location     Type
  2653 ;;                  2   18[COMRAM] int 
  2654 ;; Registers used:
  2655 ;;		wreg, fsr1l, fsr1h, fsr2l, fsr2h, status,2, status,0, cstack
  2656 ;; Tracked objects:
  2657 ;;		On entry : 0/0
  2658 ;;		On exit  : 0/0
  2659 ;;		Unchanged: 0/0
  2660 ;; Data sizes:     COMRAM   BANK5   BANK6   BANK7   BANK8   BANK9  BANK10  BANK11  BANK12  BANK13  BANK14  BANK15  BANK1
      +6  BANK17  BANK18  BANK19  BANK20  BANK21  BANK22  BANK23  BANK24  BANK25  BANK26  BANK27  BANK28  BANK29  BANK30  BANK3
      +1  BANK32  BANK33  BANK34  BANK35  BANK36
  2661 ;;      Params:         4       0       0       0       0       0       0       0       0       0       0       0       
      +0       0       0       0       0       0       0       0       0       0       0       0       0       0       0       
      +0       0       0       0       0       0
  2662 ;;      Locals:         3       0       0       0       0       0       0       0       0       0       0       0       
      +0       0       0       0       0       0       0       0       0       0       0       0       0       0       0       
      +0       0       0       0       0       0
  2663 ;;      Temps:          0       0       0       0       0       0       0       0       0       0       0       0       
      +0       0       0       0       0       0       0       0       0       0       0       0       0       0       0       
      +0       0       0       0       0       0
  2664 ;;      Totals:         7       0       0       0       0       0       0       0       0       0       0       0       
      +0       0       0       0       0       0       0       0       0       0       0       0       0       0       0       
      +0       0       0       0       0       0
  2665 ;;Total ram usage:        7 bytes
  2666 ;; Hardware stack levels used: 1
  2667 ;; Hardware stack levels required when called: 7
  2668 ;; This function calls:
  2669 ;;		_fputc
  2670 ;; This function is called by:
  2671 ;;		_pad
  2672 ;; This function uses a non-reentrant model
  2673 ;;
  2674                           
  2675                           	psect	text11
  2676   0111E8                     __ptext11:
  2677                           	callstack 0
  2678   0111E8                     _fputs:
  2679                           	callstack 112
  2680   0111E8  0E00               	movlw	0
  2681   0111EA  6E19               	movwf	(fputs@i+1)^(0+1280),c
  2682   0111EC  0E00               	movlw	0
  2683   0111EE  6E18               	movwf	fputs@i^(0+1280),c
  2684   0111F0  EF05  F089         	goto	l3911
  2685   0111F4                     l3907:
  2686   0111F4  C517  F50A         	movff	fputs@c,fputc@c
  2687   0111F8  6A0B               	clrf	(fputc@c+1)^(0+1280),c
  2688   0111FA  C515  F50C         	movff	fputs@fp,fputc@fp
  2689   0111FE  C516  F50D         	movff	fputs@fp+1,fputc@fp+1
  2690   011202  EC2F  F087         	call	_fputc	;wreg free
  2691   011206  4A18               	infsnz	fputs@i^(0+1280),f,c
  2692   011208  2A19               	incf	(fputs@i+1)^(0+1280),f,c
  2693   01120A                     l3911:
  2694   01120A  5018               	movf	fputs@i^(0+1280),w,c
  2695   01120C  2413               	addwf	fputs@s^(0+1280),w,c
  2696   01120E  6ED9               	movwf	fsr2l,c
  2697   011210  5019               	movf	(fputs@i+1)^(0+1280),w,c
  2698   011212  2014               	addwfc	(fputs@s+1)^(0+1280),w,c
  2699   011214  6EDA               	movwf	fsr2h,c
  2700   011216  50DF               	movf	indf2,w,c
  2701   011218  6E17               	movwf	fputs@c^(0+1280),c
  2702   01121A  5017               	movf	fputs@c^(0+1280),w,c
  2703   01121C  A4D8               	btfss	status,2,c
  2704   01121E  EF13  F089         	goto	u2771
  2705   011222  EF15  F089         	goto	u2770
  2706   011226                     u2771:
  2707   011226  EFFA  F088         	goto	l3907
  2708   01122A                     u2770:
  2709   01122A  0012               	return		;funcret
  2710   01122C                     __end_of_fputs:
  2711                           	callstack 0
  2712                           
  2713 ;; *************** function _fputc *****************
  2714 ;; Defined at:
  2715 ;;		line 8 in file "C:\Program Files\Microchip\xc8\v2.40\pic\sources\c99\common\nf_fputc.c"
  2716 ;; Parameters:    Size  Location     Type
  2717 ;;  c               2    9[COMRAM] int 
  2718 ;;  fp              2   11[COMRAM] PTR struct _IO_FILE
  2719 ;;		 -> NULL(0), 
  2720 ;; Auto vars:     Size  Location     Type
  2721 ;;		None
  2722 ;; Return value:  Size  Location     Type
  2723 ;;                  2    9[COMRAM] int 
  2724 ;; Registers used:
  2725 ;;		wreg, fsr1l, fsr1h, fsr2l, fsr2h, status,2, status,0, cstack
  2726 ;; Tracked objects:
  2727 ;;		On entry : 0/0
  2728 ;;		On exit  : 0/0
  2729 ;;		Unchanged: 0/0
  2730 ;; Data sizes:     COMRAM   BANK5   BANK6   BANK7   BANK8   BANK9  BANK10  BANK11  BANK12  BANK13  BANK14  BANK15  BANK1
      +6  BANK17  BANK18  BANK19  BANK20  BANK21  BANK22  BANK23  BANK24  BANK25  BANK26  BANK27  BANK28  BANK29  BANK30  BANK3
      +1  BANK32  BANK33  BANK34  BANK35  BANK36
  2731 ;;      Params:         4       0       0       0       0       0       0       0       0       0       0       0       
      +0       0       0       0       0       0       0       0       0       0       0       0       0       0       0       
      +0       0       0       0       0       0
  2732 ;;      Locals:         0       0       0       0       0       0       0       0       0       0       0       0       
      +0       0       0       0       0       0       0       0       0       0       0       0       0       0       0       
      +0       0       0       0       0       0
  2733 ;;      Temps:          5       0       0       0       0       0       0       0       0       0       0       0       
      +0       0       0       0       0       0       0       0       0       0       0       0       0       0       0       
      +0       0       0       0       0       0
  2734 ;;      Totals:         9       0       0       0       0       0       0       0       0       0       0       0       
      +0       0       0       0       0       0       0       0       0       0       0       0       0       0       0       
      +0       0       0       0       0       0
  2735 ;;Total ram usage:        9 bytes
  2736 ;; Hardware stack levels used: 1
  2737 ;; Hardware stack levels required when called: 6
  2738 ;; This function calls:
  2739 ;;		_putch
  2740 ;; This function is called by:
  2741 ;;		_pad
  2742 ;;		_vfpfcnvrt
  2743 ;;		_fputs
  2744 ;; This function uses a non-reentrant model
  2745 ;;
  2746                           
  2747                           	psect	text12
  2748   010E5E                     __ptext12:
  2749                           	callstack 0
  2750   010E5E                     _fputc:
  2751                           	callstack 115
  2752   010E5E  500C               	movf	fputc@fp^(0+1280),w,c
  2753   010E60  100D               	iorwf	(fputc@fp+1)^(0+1280),w,c
  2754   010E62  B4D8               	btfsc	status,2,c
  2755   010E64  EF36  F087         	goto	u2731
  2756   010E68  EF38  F087         	goto	u2730
  2757   010E6C                     u2731:
  2758   010E6C  EF41  F087         	goto	l3895
  2759   010E70                     u2730:
  2760   010E70  500C               	movf	fputc@fp^(0+1280),w,c
  2761   010E72  100D               	iorwf	(fputc@fp+1)^(0+1280),w,c
  2762   010E74  A4D8               	btfss	status,2,c
  2763   010E76  EF3F  F087         	goto	u2741
  2764   010E7A  EF41  F087         	goto	u2740
  2765   010E7E                     u2741:
  2766   010E7E  EF46  F087         	goto	l3897
  2767   010E82                     u2740:
  2768   010E82                     l3895:
  2769   010E82  500A               	movf	fputc@c^(0+1280),w,c
  2770   010E84  EC9D  F08A         	call	_putch
  2771   010E88  EF79  F087         	goto	l1835
  2772   010E8C                     l3897:
  2773   010E8C  EE20 F009          	lfsr	2,9
  2774   010E90  500C               	movf	fputc@fp^(0+1280),w,c
  2775   010E92  26D9               	addwf	fsr2l,f,c
  2776   010E94  500D               	movf	(fputc@fp+1)^(0+1280),w,c
  2777   010E96  22DA               	addwfc	fsr2h,f,c
  2778   010E98  50DE               	movf	postinc2,w,c
  2779   010E9A  10DE               	iorwf	postinc2,w,c
  2780   010E9C  B4D8               	btfsc	status,2,c
  2781   010E9E  EF53  F087         	goto	u2751
  2782   010EA2  EF55  F087         	goto	u2750
  2783   010EA6                     u2751:
  2784   010EA6  EF70  F087         	goto	l3901
  2785   010EAA                     u2750:
  2786   010EAA  EE20 F009          	lfsr	2,9
  2787   010EAE  500C               	movf	fputc@fp^(0+1280),w,c
  2788   010EB0  26D9               	addwf	fsr2l,f,c
  2789   010EB2  500D               	movf	(fputc@fp+1)^(0+1280),w,c
  2790   010EB4  22DA               	addwfc	fsr2h,f,c
  2791   010EB6  EE10 F003          	lfsr	1,3
  2792   010EBA  500C               	movf	fputc@fp^(0+1280),w,c
  2793   010EBC  26E1               	addwf	fsr1l,f,c
  2794   010EBE  500D               	movf	(fputc@fp+1)^(0+1280),w,c
  2795   010EC0  22E2               	addwfc	fsr1h,f,c
  2796   010EC2  50DE               	movf	postinc2,w,c
  2797   010EC4  5CE6               	subwf	postinc1,w,c
  2798   010EC6  50E6               	movf	postinc1,w,c
  2799   010EC8  0A80               	xorlw	128
  2800   010ECA  6E12               	movwf	(??_fputc+4)^(0+1280),c
  2801   010ECC  50DE               	movf	postinc2,w,c
  2802   010ECE  0A80               	xorlw	128
  2803   010ED0  5812               	subwfb	(??_fputc+4)^(0+1280),w,c
  2804   010ED2  B0D8               	btfsc	status,0,c
  2805   010ED4  EF6E  F087         	goto	u2761
  2806   010ED8  EF70  F087         	goto	u2760
  2807   010EDC                     u2761:
  2808   010EDC  EF79  F087         	goto	l1835
  2809   010EE0                     u2760:
  2810   010EE0                     l3901:
  2811   010EE0  EE20 F003          	lfsr	2,3
  2812   010EE4  500C               	movf	fputc@fp^(0+1280),w,c
  2813   010EE6  26D9               	addwf	fsr2l,f,c
  2814   010EE8  500D               	movf	(fputc@fp+1)^(0+1280),w,c
  2815   010EEA  22DA               	addwfc	fsr2h,f,c
  2816   010EEC  2ADE               	incf	postinc2,f,c
  2817   010EEE  0E00               	movlw	0
  2818   010EF0  22DD               	addwfc	postdec2,f,c
  2819   010EF2                     l1835:
  2820   010EF2  0012               	return		;funcret
  2821   010EF4                     __end_of_fputc:
  2822                           	callstack 0
  2823                           
  2824 ;; *************** function _putch *****************
  2825 ;; Defined at:
  2826 ;;		line 434 in file "mcc_generated_files/uart/src/uart1.c"
  2827 ;; Parameters:    Size  Location     Type
  2828 ;;  txData          1    wreg     unsigned char 
  2829 ;; Auto vars:     Size  Location     Type
  2830 ;;  txData          1    8[COMRAM] unsigned char 
  2831 ;; Return value:  Size  Location     Type
  2832 ;;                  1    wreg      void 
  2833 ;; Registers used:
  2834 ;;		wreg, fsr2l, fsr2h, status,2, status,0, cstack
  2835 ;; Tracked objects:
  2836 ;;		On entry : 0/0
  2837 ;;		On exit  : 0/0
  2838 ;;		Unchanged: 0/0
  2839 ;; Data sizes:     COMRAM   BANK5   BANK6   BANK7   BANK8   BANK9  BANK10  BANK11  BANK12  BANK13  BANK14  BANK15  BANK1
      +6  BANK17  BANK18  BANK19  BANK20  BANK21  BANK22  BANK23  BANK24  BANK25  BANK26  BANK27  BANK28  BANK29  BANK30  BANK3
      +1  BANK32  BANK33  BANK34  BANK35  BANK36
  2840 ;;      Params:         0       0       0       0       0       0       0       0       0       0       0       0       
      +0       0       0       0       0       0       0       0       0       0       0       0       0       0       0       
      +0       0       0       0       0       0
  2841 ;;      Locals:         1       0       0       0       0       0       0       0       0       0       0       0       
      +0       0       0       0       0       0       0       0       0       0       0       0       0       0       0       
      +0       0       0       0       0       0
  2842 ;;      Temps:          0       0       0       0       0       0       0       0       0       0       0       0       
      +0       0       0       0       0       0       0       0       0       0       0       0       0       0       0       
      +0       0       0       0       0       0
  2843 ;;      Totals:         1       0       0       0       0       0       0       0       0       0       0       0       
      +0       0       0       0       0       0       0       0       0       0       0       0       0       0       0       
      +0       0       0       0       0       0
  2844 ;;Total ram usage:        1 bytes
  2845 ;; Hardware stack levels used: 1
  2846 ;; Hardware stack levels required when called: 5
  2847 ;; This function calls:
  2848 ;;		_UART1_IsTxReady
  2849 ;;		_UART1_Write
  2850 ;; This function is called by:
  2851 ;;		_fputc
  2852 ;; This function uses a non-reentrant model
  2853 ;;
  2854                           
  2855                           	psect	text13
  2856   01153A                     __ptext13:
  2857                           	callstack 0
  2858   01153A                     _putch:
  2859                           	callstack 115
  2860                           
  2861                           ;incstack = 0
  2862                           ;putch@txData stored from wreg
  2863   01153A  6E09               	movwf	putch@txData^(0+1280),c
  2864   01153C                     l3885:
  2865   01153C  ECE3  F08A         	call	_UART1_IsTxReady	;wreg free
  2866   011540  0900               	iorlw	0
  2867   011542  B4D8               	btfsc	status,2,c
  2868   011544  EFA6  F08A         	goto	u2721
  2869   011548  EFA8  F08A         	goto	u2720
  2870   01154C                     u2721:
  2871   01154C  EF9E  F08A         	goto	l3885
  2872   011550                     u2720:
  2873   011550                     
  2874                           ;mcc_generated_files/uart/src/uart1.c: 437:     return UART1_Write(txData);;	Return valu
      +                          e of _putch is never used
  2875   011550  5009               	movf	putch@txData^(0+1280),w,c
  2876   011552  ECCF  F088         	call	_UART1_Write
  2877   011556  0012               	return		;funcret
  2878   011558                     __end_of_putch:
  2879                           	callstack 0
  2880                           
  2881 ;; *************** function _UART1_Write *****************
  2882 ;; Defined at:
  2883 ;;		line 381 in file "mcc_generated_files/uart/src/uart1.c"
  2884 ;; Parameters:    Size  Location     Type
  2885 ;;  txData          1    wreg     unsigned char 
  2886 ;; Auto vars:     Size  Location     Type
  2887 ;;  txData          1    7[COMRAM] unsigned char 
  2888 ;;  tempTxHead      1    6[COMRAM] unsigned char 
  2889 ;; Return value:  Size  Location     Type
  2890 ;;                  1    wreg      void 
  2891 ;; Registers used:
  2892 ;;		wreg, fsr2l, fsr2h, status,2, status,0
  2893 ;; Tracked objects:
  2894 ;;		On entry : 0/0
  2895 ;;		On exit  : 0/0
  2896 ;;		Unchanged: 0/0
  2897 ;; Data sizes:     COMRAM   BANK5   BANK6   BANK7   BANK8   BANK9  BANK10  BANK11  BANK12  BANK13  BANK14  BANK15  BANK1
      +6  BANK17  BANK18  BANK19  BANK20  BANK21  BANK22  BANK23  BANK24  BANK25  BANK26  BANK27  BANK28  BANK29  BANK30  BANK3
      +1  BANK32  BANK33  BANK34  BANK35  BANK36
  2898 ;;      Params:         0       0       0       0       0       0       0       0       0       0       0       0       
      +0       0       0       0       0       0       0       0       0       0       0       0       0       0       0       
      +0       0       0       0       0       0
  2899 ;;      Locals:         2       0       0       0       0       0       0       0       0       0       0       0       
      +0       0       0       0       0       0       0       0       0       0       0       0       0       0       0       
      +0       0       0       0       0       0
  2900 ;;      Temps:          0       0       0       0       0       0       0       0       0       0       0       0       
      +0       0       0       0       0       0       0       0       0       0       0       0       0       0       0       
      +0       0       0       0       0       0
  2901 ;;      Totals:         2       0       0       0       0       0       0       0       0       0       0       0       
      +0       0       0       0       0       0       0       0       0       0       0       0       0       0       0       
      +0       0       0       0       0       0
  2902 ;;Total ram usage:        2 bytes
  2903 ;; Hardware stack levels used: 1
  2904 ;; Hardware stack levels required when called: 4
  2905 ;; This function calls:
  2906 ;;		Nothing
  2907 ;; This function is called by:
  2908 ;;		_putch
  2909 ;; This function uses a non-reentrant model
  2910 ;;
  2911                           
  2912                           	psect	text14
  2913   01119E                     __ptext14:
  2914                           	callstack 0
  2915   01119E                     _UART1_Write:
  2916                           	callstack 115
  2917                           
  2918                           ;incstack = 0
  2919                           ;UART1_Write@txData stored from wreg
  2920   01119E  6E08               	movwf	UART1_Write@txData^(0+1280),c
  2921   0111A0                     
  2922                           ;mcc_generated_files/uart/src/uart1.c: 381: void UART1_Write(uint8_t txData);mcc_generat
      +                          ed_files/uart/src/uart1.c: 382: {;mcc_generated_files/uart/src/uart1.c: 383:     uint8_t
      +                           tempTxHead;;mcc_generated_files/uart/src/uart1.c: 385:     if(0 == PIE4bits.U1TXIE)
  2923   0111A0  B2A2               	btfsc	162,1,c	;volatile
  2924   0111A2  EFD5  F088         	goto	u2701
  2925   0111A6  EFD7  F088         	goto	u2700
  2926   0111AA                     u2701:
  2927   0111AA  EFDB  F088         	goto	l3871
  2928   0111AE                     u2700:
  2929   0111AE                     
  2930                           ;mcc_generated_files/uart/src/uart1.c: 386:     {;mcc_generated_files/uart/src/uart1.c: 
      +                          387:         U1TXB = txData;
  2931   0111AE  C508  F2A3         	movff	UART1_Write@txData,675	;volatile
  2932                           
  2933                           ;mcc_generated_files/uart/src/uart1.c: 388:     }
  2934   0111B2  EFF2  F088         	goto	l944
  2935   0111B6                     l3871:
  2936   0111B6  5057               	movf	_uart1TxBufferRemaining^(0+1280),w,c	;volatile
  2937   0111B8  B4D8               	btfsc	status,2,c
  2938   0111BA  EFE1  F088         	goto	u2711
  2939   0111BE  EFE3  F088         	goto	u2710
  2940   0111C2                     u2711:
  2941   0111C2  EFF2  F088         	goto	l944
  2942   0111C6                     u2710:
  2943   0111C6                     
  2944                           ;mcc_generated_files/uart/src/uart1.c: 390:     {;mcc_generated_files/uart/src/uart1.c: 
      +                          391:        uart1TxBuffer[uart1TxHead] = txData;
  2945   0111C6  0E50               	movlw	low _uart1TxBuffer
  2946   0111C8  2459               	addwf	_uart1TxHead^(0+1280),w,c	;volatile
  2947   0111CA  6ED9               	movwf	fsr2l,c
  2948   0111CC  6ADA               	clrf	fsr2h,c
  2949   0111CE  0E06               	movlw	high _uart1TxBuffer
  2950   0111D0  22DA               	addwfc	fsr2h,f,c
  2951   0111D2  C508  F4DF         	movff	UART1_Write@txData,indf2
  2952   0111D6                     
  2953                           ;mcc_generated_files/uart/src/uart1.c: 392:        tempTxHead = (uart1TxHead + 1) & ((64
      +                          ) - 1);
  2954   0111D6  2859               	incf	_uart1TxHead^(0+1280),w,c	;volatile
  2955   0111D8  0B3F               	andlw	63
  2956   0111DA  6E07               	movwf	UART1_Write@tempTxHead^(0+1280),c
  2957   0111DC                     
  2958                           ;mcc_generated_files/uart/src/uart1.c: 394:        uart1TxHead = tempTxHead;
  2959   0111DC  C507  F559         	movff	UART1_Write@tempTxHead,_uart1TxHead	;volatile
  2960   0111E0                     
  2961                           ;mcc_generated_files/uart/src/uart1.c: 395:        PIE4bits.U1TXIE = 0;
  2962   0111E0  92A2               	bcf	162,1,c	;volatile
  2963   0111E2                     
  2964                           ;mcc_generated_files/uart/src/uart1.c: 396:        uart1TxBufferRemaining--;
  2965   0111E2  0657               	decf	_uart1TxBufferRemaining^(0+1280),f,c	;volatile
  2966   0111E4                     l944:
  2967                           
  2968                           ;mcc_generated_files/uart/src/uart1.c: 402:     PIE4bits.U1TXIE = 1;
  2969   0111E4  82A2               	bsf	162,1,c	;volatile
  2970   0111E6  0012               	return		;funcret
  2971   0111E8                     __end_of_UART1_Write:
  2972                           	callstack 0
  2973                           
  2974 ;; *************** function _UART1_IsTxReady *****************
  2975 ;; Defined at:
  2976 ;;		line 302 in file "mcc_generated_files/uart/src/uart1.c"
  2977 ;; Parameters:    Size  Location     Type
  2978 ;;		None
  2979 ;; Auto vars:     Size  Location     Type
  2980 ;;		None
  2981 ;; Return value:  Size  Location     Type
  2982 ;;                  1    wreg      _Bool 
  2983 ;; Registers used:
  2984 ;;		wreg, status,2
  2985 ;; Tracked objects:
  2986 ;;		On entry : 0/0
  2987 ;;		On exit  : 0/0
  2988 ;;		Unchanged: 0/0
  2989 ;; Data sizes:     COMRAM   BANK5   BANK6   BANK7   BANK8   BANK9  BANK10  BANK11  BANK12  BANK13  BANK14  BANK15  BANK1
      +6  BANK17  BANK18  BANK19  BANK20  BANK21  BANK22  BANK23  BANK24  BANK25  BANK26  BANK27  BANK28  BANK29  BANK30  BANK3
      +1  BANK32  BANK33  BANK34  BANK35  BANK36
  2990 ;;      Params:         0       0       0       0       0       0       0       0       0       0       0       0       
      +0       0       0       0       0       0       0       0       0       0       0       0       0       0       0       
      +0       0       0       0       0       0
  2991 ;;      Locals:         0       0       0       0       0       0       0       0       0       0       0       0       
      +0       0       0       0       0       0       0       0       0       0       0       0       0       0       0       
      +0       0       0       0       0       0
  2992 ;;      Temps:          0       0       0       0       0       0       0       0       0       0       0       0       
      +0       0       0       0       0       0       0       0       0       0       0       0       0       0       0       
      +0       0       0       0       0       0
  2993 ;;      Totals:         0       0       0       0       0       0       0       0       0       0       0       0       
      +0       0       0       0       0       0       0       0       0       0       0       0       0       0       0       
      +0       0       0       0       0       0
  2994 ;;Total ram usage:        0 bytes
  2995 ;; Hardware stack levels used: 1
  2996 ;; Hardware stack levels required when called: 4
  2997 ;; This function calls:
  2998 ;;		Nothing
  2999 ;; This function is called by:
  3000 ;;		_putch
  3001 ;; This function uses a non-reentrant model
  3002 ;;
  3003                           
  3004                           	psect	text15
  3005   0115C6                     __ptext15:
  3006                           	callstack 0
  3007   0115C6                     _UART1_IsTxReady:
  3008                           	callstack 115
  3009   0115C6                     
  3010                           ;mcc_generated_files/uart/src/uart1.c: 304:     return (uart1TxBufferRemaining ? 1 : 0);
  3011   0115C6  5057               	movf	_uart1TxBufferRemaining^(0+1280),w,c	;volatile
  3012   0115C8  A4D8               	btfss	status,2,c
  3013   0115CA  EFE9  F08A         	goto	u2681
  3014   0115CE  EFEC  F08A         	goto	u2680
  3015   0115D2                     u2681:
  3016   0115D2  0E01               	movlw	1
  3017   0115D4  EFED  F08A         	goto	u2690
  3018   0115D8                     u2680:
  3019   0115D8  0E00               	movlw	0
  3020   0115DA                     u2690:
  3021   0115DA  0012               	return		;funcret
  3022   0115DC                     __end_of_UART1_IsTxReady:
  3023                           	callstack 0
  3024                           
  3025 ;; *************** function _abs *****************
  3026 ;; Defined at:
  3027 ;;		line 1 in file "C:\Program Files\Microchip\xc8\v2.40\pic\sources\c99\common\abs.c"
  3028 ;; Parameters:    Size  Location     Type
  3029 ;;  a               2   24[COMRAM] int 
  3030 ;; Auto vars:     Size  Location     Type
  3031 ;;		None
  3032 ;; Return value:  Size  Location     Type
  3033 ;;                  2   24[COMRAM] int 
  3034 ;; Registers used:
  3035 ;;		wreg, status,2, status,0
  3036 ;; Tracked objects:
  3037 ;;		On entry : 0/0
  3038 ;;		On exit  : 0/0
  3039 ;;		Unchanged: 0/0
  3040 ;; Data sizes:     COMRAM   BANK5   BANK6   BANK7   BANK8   BANK9  BANK10  BANK11  BANK12  BANK13  BANK14  BANK15  BANK1
      +6  BANK17  BANK18  BANK19  BANK20  BANK21  BANK22  BANK23  BANK24  BANK25  BANK26  BANK27  BANK28  BANK29  BANK30  BANK3
      +1  BANK32  BANK33  BANK34  BANK35  BANK36
  3041 ;;      Params:         2       0       0       0       0       0       0       0       0       0       0       0       
      +0       0       0       0       0       0       0       0       0       0       0       0       0       0       0       
      +0       0       0       0       0       0
  3042 ;;      Locals:         0       0       0       0       0       0       0       0       0       0       0       0       
      +0       0       0       0       0       0       0       0       0       0       0       0       0       0       0       
      +0       0       0       0       0       0
  3043 ;;      Temps:          2       0       0       0       0       0       0       0       0       0       0       0       
      +0       0       0       0       0       0       0       0       0       0       0       0       0       0       0       
      +0       0       0       0       0       0
  3044 ;;      Totals:         4       0       0       0       0       0       0       0       0       0       0       0       
      +0       0       0       0       0       0       0       0       0       0       0       0       0       0       0       
      +0       0       0       0       0       0
  3045 ;;Total ram usage:        4 bytes
  3046 ;; Hardware stack levels used: 1
  3047 ;; Hardware stack levels required when called: 4
  3048 ;; This function calls:
  3049 ;;		Nothing
  3050 ;; This function is called by:
  3051 ;;		_dtoa
  3052 ;; This function uses a non-reentrant model
  3053 ;;
  3054                           
  3055                           	psect	text16
  3056   01126E                     __ptext16:
  3057                           	callstack 0
  3058   01126E                     _abs:
  3059                           	callstack 116
  3060   01126E  BE1A               	btfsc	(abs@a+1)^(0+1280),7,c
  3061   011270  EF44  F089         	goto	u2930
  3062   011274  501A               	movf	(abs@a+1)^(0+1280),w,c
  3063   011276  E106               	bnz	u2931
  3064   011278  0419               	decf	abs@a^(0+1280),w,c
  3065   01127A  B0D8               	btfsc	status,0,c
  3066   01127C  EF42  F089         	goto	u2931
  3067   011280  EF44  F089         	goto	u2930
  3068   011284                     u2931:
  3069   011284  EF52  F089         	goto	l1820
  3070   011288                     u2930:
  3071   011288  C519  F51B         	movff	abs@a,??_abs
  3072   01128C  C51A  F51C         	movff	abs@a+1,??_abs+1
  3073   011290  1E1B               	comf	??_abs^(0+1280),f,c
  3074   011292  1E1C               	comf	(??_abs+1)^(0+1280),f,c
  3075   011294  4A1B               	infsnz	??_abs^(0+1280),f,c
  3076   011296  2A1C               	incf	(??_abs+1)^(0+1280),f,c
  3077   011298  C51B  F519         	movff	??_abs,?_abs
  3078   01129C  C51C  F51A         	movff	??_abs+1,?_abs+1
  3079   0112A0  EF56  F089         	goto	l1823
  3080   0112A4                     l1820:
  3081   0112A4  C519  F519         	movff	abs@a,?_abs
  3082   0112A8  C51A  F51A         	movff	abs@a+1,?_abs+1
  3083   0112AC                     l1823:
  3084   0112AC  0012               	return		;funcret
  3085   0112AE                     __end_of_abs:
  3086                           	callstack 0
  3087                           
  3088 ;; *************** function ___aomod *****************
  3089 ;; Defined at:
  3090 ;;		line 9 in file "C:\Program Files\Microchip\xc8\v2.40\pic\sources\c99\common\aomod.c"
  3091 ;; Parameters:    Size  Location     Type
  3092 ;;  dividend        8    6[COMRAM] long long 
  3093 ;;  divisor         8   14[COMRAM] long long 
  3094 ;; Auto vars:     Size  Location     Type
  3095 ;;  sign            1   23[COMRAM] unsigned char 
  3096 ;;  counter         1   22[COMRAM] unsigned char 
  3097 ;; Return value:  Size  Location     Type
  3098 ;;                  8    6[COMRAM] long long 
  3099 ;; Registers used:
  3100 ;;		wreg, status,2, status,0
  3101 ;; Tracked objects:
  3102 ;;		On entry : 0/0
  3103 ;;		On exit  : 0/0
  3104 ;;		Unchanged: 0/0
  3105 ;; Data sizes:     COMRAM   BANK5   BANK6   BANK7   BANK8   BANK9  BANK10  BANK11  BANK12  BANK13  BANK14  BANK15  BANK1
      +6  BANK17  BANK18  BANK19  BANK20  BANK21  BANK22  BANK23  BANK24  BANK25  BANK26  BANK27  BANK28  BANK29  BANK30  BANK3
      +1  BANK32  BANK33  BANK34  BANK35  BANK36
  3106 ;;      Params:        16       0       0       0       0       0       0       0       0       0       0       0       
      +0       0       0       0       0       0       0       0       0       0       0       0       0       0       0       
      +0       0       0       0       0       0
  3107 ;;      Locals:         2       0       0       0       0       0       0       0       0       0       0       0       
      +0       0       0       0       0       0       0       0       0       0       0       0       0       0       0       
      +0       0       0       0       0       0
  3108 ;;      Temps:          0       0       0       0       0       0       0       0       0       0       0       0       
      +0       0       0       0       0       0       0       0       0       0       0       0       0       0       0       
      +0       0       0       0       0       0
  3109 ;;      Totals:        18       0       0       0       0       0       0       0       0       0       0       0       
      +0       0       0       0       0       0       0       0       0       0       0       0       0       0       0       
      +0       0       0       0       0       0
  3110 ;;Total ram usage:       18 bytes
  3111 ;; Hardware stack levels used: 1
  3112 ;; Hardware stack levels required when called: 4
  3113 ;; This function calls:
  3114 ;;		Nothing
  3115 ;; This function is called by:
  3116 ;;		_dtoa
  3117 ;; This function uses a non-reentrant model
  3118 ;;
  3119                           
  3120                           	psect	text17
  3121   010586                     __ptext17:
  3122                           	callstack 0
  3123   010586                     ___aomod:
  3124                           	callstack 116
  3125   010586  0E00               	movlw	0
  3126   010588  6E18               	movwf	___aomod@sign^(0+1280),c
  3127   01058A  BE0E               	btfsc	(___aomod@dividend+7)^(0+1280),7,c
  3128   01058C  EFCC  F082         	goto	u2850
  3129   010590  EFCA  F082         	goto	u2851
  3130   010594                     u2851:
  3131   010594  EFDE  F082         	goto	l3965
  3132   010598                     u2850:
  3133   010598  1E0E               	comf	(___aomod@dividend+7)^(0+1280),f,c
  3134   01059A  1E0D               	comf	(___aomod@dividend+6)^(0+1280),f,c
  3135   01059C  1E0C               	comf	(___aomod@dividend+5)^(0+1280),f,c
  3136   01059E  1E0B               	comf	(___aomod@dividend+4)^(0+1280),f,c
  3137   0105A0  1E0A               	comf	(___aomod@dividend+3)^(0+1280),f,c
  3138   0105A2  1E09               	comf	(___aomod@dividend+2)^(0+1280),f,c
  3139   0105A4  1E08               	comf	(___aomod@dividend+1)^(0+1280),f,c
  3140   0105A6  6C07               	negf	___aomod@dividend^(0+1280),c
  3141   0105A8  0E00               	movlw	0
  3142   0105AA  2208               	addwfc	(___aomod@dividend+1)^(0+1280),f,c
  3143   0105AC  2209               	addwfc	(___aomod@dividend+2)^(0+1280),f,c
  3144   0105AE  220A               	addwfc	(___aomod@dividend+3)^(0+1280),f,c
  3145   0105B0  220B               	addwfc	(___aomod@dividend+4)^(0+1280),f,c
  3146   0105B2  220C               	addwfc	(___aomod@dividend+5)^(0+1280),f,c
  3147   0105B4  220D               	addwfc	(___aomod@dividend+6)^(0+1280),f,c
  3148   0105B6  220E               	addwfc	(___aomod@dividend+7)^(0+1280),f,c
  3149   0105B8  0E01               	movlw	1
  3150   0105BA  6E18               	movwf	___aomod@sign^(0+1280),c
  3151   0105BC                     l3965:
  3152   0105BC  BE16               	btfsc	(___aomod@divisor+7)^(0+1280),7,c
  3153   0105BE  EFE5  F082         	goto	u2860
  3154   0105C2  EFE3  F082         	goto	u2861
  3155   0105C6                     u2861:
  3156   0105C6  EFF5  F082         	goto	l3969
  3157   0105CA                     u2860:
  3158   0105CA  1E16               	comf	(___aomod@divisor+7)^(0+1280),f,c
  3159   0105CC  1E15               	comf	(___aomod@divisor+6)^(0+1280),f,c
  3160   0105CE  1E14               	comf	(___aomod@divisor+5)^(0+1280),f,c
  3161   0105D0  1E13               	comf	(___aomod@divisor+4)^(0+1280),f,c
  3162   0105D2  1E12               	comf	(___aomod@divisor+3)^(0+1280),f,c
  3163   0105D4  1E11               	comf	(___aomod@divisor+2)^(0+1280),f,c
  3164   0105D6  1E10               	comf	(___aomod@divisor+1)^(0+1280),f,c
  3165   0105D8  6C0F               	negf	___aomod@divisor^(0+1280),c
  3166   0105DA  0E00               	movlw	0
  3167   0105DC  2210               	addwfc	(___aomod@divisor+1)^(0+1280),f,c
  3168   0105DE  2211               	addwfc	(___aomod@divisor+2)^(0+1280),f,c
  3169   0105E0  2212               	addwfc	(___aomod@divisor+3)^(0+1280),f,c
  3170   0105E2  2213               	addwfc	(___aomod@divisor+4)^(0+1280),f,c
  3171   0105E4  2214               	addwfc	(___aomod@divisor+5)^(0+1280),f,c
  3172   0105E6  2215               	addwfc	(___aomod@divisor+6)^(0+1280),f,c
  3173   0105E8  2216               	addwfc	(___aomod@divisor+7)^(0+1280),f,c
  3174   0105EA                     l3969:
  3175   0105EA  500F               	movf	___aomod@divisor^(0+1280),w,c
  3176   0105EC  1010               	iorwf	(___aomod@divisor+1)^(0+1280),w,c
  3177   0105EE  1011               	iorwf	(___aomod@divisor+2)^(0+1280),w,c
  3178   0105F0  1012               	iorwf	(___aomod@divisor+3)^(0+1280),w,c
  3179   0105F2  1013               	iorwf	(___aomod@divisor+4)^(0+1280),w,c
  3180   0105F4  1014               	iorwf	(___aomod@divisor+5)^(0+1280),w,c
  3181   0105F6  1015               	iorwf	(___aomod@divisor+6)^(0+1280),w,c
  3182   0105F8  1016               	iorwf	(___aomod@divisor+7)^(0+1280),w,c
  3183   0105FA  B4D8               	btfsc	status,2,c
  3184   0105FC  EF02  F083         	goto	u2871
  3185   010600  EF04  F083         	goto	u2870
  3186   010604                     u2871:
  3187   010604  EF4C  F083         	goto	l3985
  3188   010608                     u2870:
  3189   010608  0E01               	movlw	1
  3190   01060A  6E17               	movwf	___aomod@counter^(0+1280),c
  3191   01060C  EF12  F083         	goto	l3975
  3192   010610                     l3973:
  3193   010610  90D8               	bcf	status,0,c
  3194   010612  360F               	rlcf	___aomod@divisor^(0+1280),f,c
  3195   010614  3610               	rlcf	(___aomod@divisor+1)^(0+1280),f,c
  3196   010616  3611               	rlcf	(___aomod@divisor+2)^(0+1280),f,c
  3197   010618  3612               	rlcf	(___aomod@divisor+3)^(0+1280),f,c
  3198   01061A  3613               	rlcf	(___aomod@divisor+4)^(0+1280),f,c
  3199   01061C  3614               	rlcf	(___aomod@divisor+5)^(0+1280),f,c
  3200   01061E  3615               	rlcf	(___aomod@divisor+6)^(0+1280),f,c
  3201   010620  3616               	rlcf	(___aomod@divisor+7)^(0+1280),f,c
  3202   010622  2A17               	incf	___aomod@counter^(0+1280),f,c
  3203   010624                     l3975:
  3204   010624  AE16               	btfss	(___aomod@divisor+7)^(0+1280),7,c
  3205   010626  EF17  F083         	goto	u2881
  3206   01062A  EF19  F083         	goto	u2880
  3207   01062E                     u2881:
  3208   01062E  EF08  F083         	goto	l3973
  3209   010632                     u2880:
  3210   010632                     l3977:
  3211   010632  500F               	movf	___aomod@divisor^(0+1280),w,c
  3212   010634  5C07               	subwf	___aomod@dividend^(0+1280),w,c
  3213   010636  5010               	movf	(___aomod@divisor+1)^(0+1280),w,c
  3214   010638  5808               	subwfb	(___aomod@dividend+1)^(0+1280),w,c
  3215   01063A  5011               	movf	(___aomod@divisor+2)^(0+1280),w,c
  3216   01063C  5809               	subwfb	(___aomod@dividend+2)^(0+1280),w,c
  3217   01063E  5012               	movf	(___aomod@divisor+3)^(0+1280),w,c
  3218   010640  580A               	subwfb	(___aomod@dividend+3)^(0+1280),w,c
  3219   010642  5013               	movf	(___aomod@divisor+4)^(0+1280),w,c
  3220   010644  580B               	subwfb	(___aomod@dividend+4)^(0+1280),w,c
  3221   010646  5014               	movf	(___aomod@divisor+5)^(0+1280),w,c
  3222   010648  580C               	subwfb	(___aomod@dividend+5)^(0+1280),w,c
  3223   01064A  5015               	movf	(___aomod@divisor+6)^(0+1280),w,c
  3224   01064C  580D               	subwfb	(___aomod@dividend+6)^(0+1280),w,c
  3225   01064E  5016               	movf	(___aomod@divisor+7)^(0+1280),w,c
  3226   010650  580E               	subwfb	(___aomod@dividend+7)^(0+1280),w,c
  3227   010652  A0D8               	btfss	status,0,c
  3228   010654  EF2E  F083         	goto	u2891
  3229   010658  EF30  F083         	goto	u2890
  3230   01065C                     u2891:
  3231   01065C  EF40  F083         	goto	l3981
  3232   010660                     u2890:
  3233   010660  500F               	movf	___aomod@divisor^(0+1280),w,c
  3234   010662  5E07               	subwf	___aomod@dividend^(0+1280),f,c
  3235   010664  5010               	movf	(___aomod@divisor+1)^(0+1280),w,c
  3236   010666  5A08               	subwfb	(___aomod@dividend+1)^(0+1280),f,c
  3237   010668  5011               	movf	(___aomod@divisor+2)^(0+1280),w,c
  3238   01066A  5A09               	subwfb	(___aomod@dividend+2)^(0+1280),f,c
  3239   01066C  5012               	movf	(___aomod@divisor+3)^(0+1280),w,c
  3240   01066E  5A0A               	subwfb	(___aomod@dividend+3)^(0+1280),f,c
  3241   010670  5013               	movf	(___aomod@divisor+4)^(0+1280),w,c
  3242   010672  5A0B               	subwfb	(___aomod@dividend+4)^(0+1280),f,c
  3243   010674  5014               	movf	(___aomod@divisor+5)^(0+1280),w,c
  3244   010676  5A0C               	subwfb	(___aomod@dividend+5)^(0+1280),f,c
  3245   010678  5015               	movf	(___aomod@divisor+6)^(0+1280),w,c
  3246   01067A  5A0D               	subwfb	(___aomod@dividend+6)^(0+1280),f,c
  3247   01067C  5016               	movf	(___aomod@divisor+7)^(0+1280),w,c
  3248   01067E  5A0E               	subwfb	(___aomod@dividend+7)^(0+1280),f,c
  3249   010680                     l3981:
  3250   010680  90D8               	bcf	status,0,c
  3251   010682  3216               	rrcf	(___aomod@divisor+7)^(0+1280),f,c
  3252   010684  3215               	rrcf	(___aomod@divisor+6)^(0+1280),f,c
  3253   010686  3214               	rrcf	(___aomod@divisor+5)^(0+1280),f,c
  3254   010688  3213               	rrcf	(___aomod@divisor+4)^(0+1280),f,c
  3255   01068A  3212               	rrcf	(___aomod@divisor+3)^(0+1280),f,c
  3256   01068C  3211               	rrcf	(___aomod@divisor+2)^(0+1280),f,c
  3257   01068E  3210               	rrcf	(___aomod@divisor+1)^(0+1280),f,c
  3258   010690  320F               	rrcf	___aomod@divisor^(0+1280),f,c
  3259   010692  2E17               	decfsz	___aomod@counter^(0+1280),f,c
  3260   010694  EF19  F083         	goto	l3977
  3261   010698                     l3985:
  3262   010698  5018               	movf	___aomod@sign^(0+1280),w,c
  3263   01069A  B4D8               	btfsc	status,2,c
  3264   01069C  EF52  F083         	goto	u2901
  3265   0106A0  EF54  F083         	goto	u2900
  3266   0106A4                     u2901:
  3267   0106A4  EF64  F083         	goto	l3989
  3268   0106A8                     u2900:
  3269   0106A8  1E0E               	comf	(___aomod@dividend+7)^(0+1280),f,c
  3270   0106AA  1E0D               	comf	(___aomod@dividend+6)^(0+1280),f,c
  3271   0106AC  1E0C               	comf	(___aomod@dividend+5)^(0+1280),f,c
  3272   0106AE  1E0B               	comf	(___aomod@dividend+4)^(0+1280),f,c
  3273   0106B0  1E0A               	comf	(___aomod@dividend+3)^(0+1280),f,c
  3274   0106B2  1E09               	comf	(___aomod@dividend+2)^(0+1280),f,c
  3275   0106B4  1E08               	comf	(___aomod@dividend+1)^(0+1280),f,c
  3276   0106B6  6C07               	negf	___aomod@dividend^(0+1280),c
  3277   0106B8  0E00               	movlw	0
  3278   0106BA  2208               	addwfc	(___aomod@dividend+1)^(0+1280),f,c
  3279   0106BC  2209               	addwfc	(___aomod@dividend+2)^(0+1280),f,c
  3280   0106BE  220A               	addwfc	(___aomod@dividend+3)^(0+1280),f,c
  3281   0106C0  220B               	addwfc	(___aomod@dividend+4)^(0+1280),f,c
  3282   0106C2  220C               	addwfc	(___aomod@dividend+5)^(0+1280),f,c
  3283   0106C4  220D               	addwfc	(___aomod@dividend+6)^(0+1280),f,c
  3284   0106C6  220E               	addwfc	(___aomod@dividend+7)^(0+1280),f,c
  3285   0106C8                     l3989:
  3286   0106C8  C507  F507         	movff	___aomod@dividend,?___aomod
  3287   0106CC  C508  F508         	movff	___aomod@dividend+1,?___aomod+1
  3288   0106D0  C509  F509         	movff	___aomod@dividend+2,?___aomod+2
  3289   0106D4  C50A  F50A         	movff	___aomod@dividend+3,?___aomod+3
  3290   0106D8  C50B  F50B         	movff	___aomod@dividend+4,?___aomod+4
  3291   0106DC  C50C  F50C         	movff	___aomod@dividend+5,?___aomod+5
  3292   0106E0  C50D  F50D         	movff	___aomod@dividend+6,?___aomod+6
  3293   0106E4  C50E  F50E         	movff	___aomod@dividend+7,?___aomod+7
  3294   0106E8  0012               	return		;funcret
  3295   0106EA                     __end_of___aomod:
  3296                           	callstack 0
  3297                           
  3298 ;; *************** function ___aodiv *****************
  3299 ;; Defined at:
  3300 ;;		line 9 in file "C:\Program Files\Microchip\xc8\v2.40\pic\sources\c99\common\aodiv.c"
  3301 ;; Parameters:    Size  Location     Type
  3302 ;;  dividend        8    6[COMRAM] long long 
  3303 ;;  divisor         8   14[COMRAM] long long 
  3304 ;; Auto vars:     Size  Location     Type
  3305 ;;  quotient        8   24[COMRAM] long long 
  3306 ;;  sign            1   23[COMRAM] unsigned char 
  3307 ;;  counter         1   22[COMRAM] unsigned char 
  3308 ;; Return value:  Size  Location     Type
  3309 ;;                  8    6[COMRAM] long long 
  3310 ;; Registers used:
  3311 ;;		wreg, fsr2l, fsr2h, status,2, status,0
  3312 ;; Tracked objects:
  3313 ;;		On entry : 0/0
  3314 ;;		On exit  : 0/0
  3315 ;;		Unchanged: 0/0
  3316 ;; Data sizes:     COMRAM   BANK5   BANK6   BANK7   BANK8   BANK9  BANK10  BANK11  BANK12  BANK13  BANK14  BANK15  BANK1
      +6  BANK17  BANK18  BANK19  BANK20  BANK21  BANK22  BANK23  BANK24  BANK25  BANK26  BANK27  BANK28  BANK29  BANK30  BANK3
      +1  BANK32  BANK33  BANK34  BANK35  BANK36
  3317 ;;      Params:        16       0       0       0       0       0       0       0       0       0       0       0       
      +0       0       0       0       0       0       0       0       0       0       0       0       0       0       0       
      +0       0       0       0       0       0
  3318 ;;      Locals:        10       0       0       0       0       0       0       0       0       0       0       0       
      +0       0       0       0       0       0       0       0       0       0       0       0       0       0       0       
      +0       0       0       0       0       0
  3319 ;;      Temps:          0       0       0       0       0       0       0       0       0       0       0       0       
      +0       0       0       0       0       0       0       0       0       0       0       0       0       0       0       
      +0       0       0       0       0       0
  3320 ;;      Totals:        26       0       0       0       0       0       0       0       0       0       0       0       
      +0       0       0       0       0       0       0       0       0       0       0       0       0       0       0       
      +0       0       0       0       0       0
  3321 ;;Total ram usage:       26 bytes
  3322 ;; Hardware stack levels used: 1
  3323 ;; Hardware stack levels required when called: 4
  3324 ;; This function calls:
  3325 ;;		Nothing
  3326 ;; This function is called by:
  3327 ;;		_dtoa
  3328 ;; This function uses a non-reentrant model
  3329 ;;
  3330                           
  3331                           	psect	text18
  3332   01027C                     __ptext18:
  3333                           	callstack 0
  3334   01027C                     ___aodiv:
  3335                           	callstack 116
  3336   01027C  0E00               	movlw	0
  3337   01027E  6E18               	movwf	___aodiv@sign^(0+1280),c
  3338   010280  BE16               	btfsc	(___aodiv@divisor+7)^(0+1280),7,c
  3339   010282  EF47  F081         	goto	u2780
  3340   010286  EF45  F081         	goto	u2781
  3341   01028A                     u2781:
  3342   01028A  EF59  F081         	goto	l3921
  3343   01028E                     u2780:
  3344   01028E  1E16               	comf	(___aodiv@divisor+7)^(0+1280),f,c
  3345   010290  1E15               	comf	(___aodiv@divisor+6)^(0+1280),f,c
  3346   010292  1E14               	comf	(___aodiv@divisor+5)^(0+1280),f,c
  3347   010294  1E13               	comf	(___aodiv@divisor+4)^(0+1280),f,c
  3348   010296  1E12               	comf	(___aodiv@divisor+3)^(0+1280),f,c
  3349   010298  1E11               	comf	(___aodiv@divisor+2)^(0+1280),f,c
  3350   01029A  1E10               	comf	(___aodiv@divisor+1)^(0+1280),f,c
  3351   01029C  6C0F               	negf	___aodiv@divisor^(0+1280),c
  3352   01029E  0E00               	movlw	0
  3353   0102A0  2210               	addwfc	(___aodiv@divisor+1)^(0+1280),f,c
  3354   0102A2  2211               	addwfc	(___aodiv@divisor+2)^(0+1280),f,c
  3355   0102A4  2212               	addwfc	(___aodiv@divisor+3)^(0+1280),f,c
  3356   0102A6  2213               	addwfc	(___aodiv@divisor+4)^(0+1280),f,c
  3357   0102A8  2214               	addwfc	(___aodiv@divisor+5)^(0+1280),f,c
  3358   0102AA  2215               	addwfc	(___aodiv@divisor+6)^(0+1280),f,c
  3359   0102AC  2216               	addwfc	(___aodiv@divisor+7)^(0+1280),f,c
  3360   0102AE  0E01               	movlw	1
  3361   0102B0  6E18               	movwf	___aodiv@sign^(0+1280),c
  3362   0102B2                     l3921:
  3363   0102B2  BE0E               	btfsc	(___aodiv@dividend+7)^(0+1280),7,c
  3364   0102B4  EF60  F081         	goto	u2790
  3365   0102B8  EF5E  F081         	goto	u2791
  3366   0102BC                     u2791:
  3367   0102BC  EF72  F081         	goto	l3927
  3368   0102C0                     u2790:
  3369   0102C0  1E0E               	comf	(___aodiv@dividend+7)^(0+1280),f,c
  3370   0102C2  1E0D               	comf	(___aodiv@dividend+6)^(0+1280),f,c
  3371   0102C4  1E0C               	comf	(___aodiv@dividend+5)^(0+1280),f,c
  3372   0102C6  1E0B               	comf	(___aodiv@dividend+4)^(0+1280),f,c
  3373   0102C8  1E0A               	comf	(___aodiv@dividend+3)^(0+1280),f,c
  3374   0102CA  1E09               	comf	(___aodiv@dividend+2)^(0+1280),f,c
  3375   0102CC  1E08               	comf	(___aodiv@dividend+1)^(0+1280),f,c
  3376   0102CE  6C07               	negf	___aodiv@dividend^(0+1280),c
  3377   0102D0  0E00               	movlw	0
  3378   0102D2  2208               	addwfc	(___aodiv@dividend+1)^(0+1280),f,c
  3379   0102D4  2209               	addwfc	(___aodiv@dividend+2)^(0+1280),f,c
  3380   0102D6  220A               	addwfc	(___aodiv@dividend+3)^(0+1280),f,c
  3381   0102D8  220B               	addwfc	(___aodiv@dividend+4)^(0+1280),f,c
  3382   0102DA  220C               	addwfc	(___aodiv@dividend+5)^(0+1280),f,c
  3383   0102DC  220D               	addwfc	(___aodiv@dividend+6)^(0+1280),f,c
  3384   0102DE  220E               	addwfc	(___aodiv@dividend+7)^(0+1280),f,c
  3385   0102E0  0E01               	movlw	1
  3386   0102E2  1A18               	xorwf	___aodiv@sign^(0+1280),f,c
  3387   0102E4                     l3927:
  3388   0102E4  EE21  F119         	lfsr	2,___aodiv@quotient
  3389   0102E8  0E07               	movlw	7
  3390   0102EA                     u2801:
  3391   0102EA  6ADE               	clrf	postinc2,c
  3392   0102EC  06E8               	decf	wreg,f,c
  3393   0102EE  E2FD               	bc	u2801
  3394   0102F0  500F               	movf	___aodiv@divisor^(0+1280),w,c
  3395   0102F2  1010               	iorwf	(___aodiv@divisor+1)^(0+1280),w,c
  3396   0102F4  1011               	iorwf	(___aodiv@divisor+2)^(0+1280),w,c
  3397   0102F6  1012               	iorwf	(___aodiv@divisor+3)^(0+1280),w,c
  3398   0102F8  1013               	iorwf	(___aodiv@divisor+4)^(0+1280),w,c
  3399   0102FA  1014               	iorwf	(___aodiv@divisor+5)^(0+1280),w,c
  3400   0102FC  1015               	iorwf	(___aodiv@divisor+6)^(0+1280),w,c
  3401   0102FE  1016               	iorwf	(___aodiv@divisor+7)^(0+1280),w,c
  3402   010300  B4D8               	btfsc	status,2,c
  3403   010302  EF85  F081         	goto	u2811
  3404   010306  EF87  F081         	goto	u2810
  3405   01030A                     u2811:
  3406   01030A  EFD9  F081         	goto	l3949
  3407   01030E                     u2810:
  3408   01030E  0E01               	movlw	1
  3409   010310  6E17               	movwf	___aodiv@counter^(0+1280),c
  3410   010312  EF95  F081         	goto	l3935
  3411   010316                     l3933:
  3412   010316  90D8               	bcf	status,0,c
  3413   010318  360F               	rlcf	___aodiv@divisor^(0+1280),f,c
  3414   01031A  3610               	rlcf	(___aodiv@divisor+1)^(0+1280),f,c
  3415   01031C  3611               	rlcf	(___aodiv@divisor+2)^(0+1280),f,c
  3416   01031E  3612               	rlcf	(___aodiv@divisor+3)^(0+1280),f,c
  3417   010320  3613               	rlcf	(___aodiv@divisor+4)^(0+1280),f,c
  3418   010322  3614               	rlcf	(___aodiv@divisor+5)^(0+1280),f,c
  3419   010324  3615               	rlcf	(___aodiv@divisor+6)^(0+1280),f,c
  3420   010326  3616               	rlcf	(___aodiv@divisor+7)^(0+1280),f,c
  3421   010328  2A17               	incf	___aodiv@counter^(0+1280),f,c
  3422   01032A                     l3935:
  3423   01032A  AE16               	btfss	(___aodiv@divisor+7)^(0+1280),7,c
  3424   01032C  EF9A  F081         	goto	u2821
  3425   010330  EF9C  F081         	goto	u2820
  3426   010334                     u2821:
  3427   010334  EF8B  F081         	goto	l3933
  3428   010338                     u2820:
  3429   010338                     l3937:
  3430   010338  90D8               	bcf	status,0,c
  3431   01033A  3619               	rlcf	___aodiv@quotient^(0+1280),f,c
  3432   01033C  361A               	rlcf	(___aodiv@quotient+1)^(0+1280),f,c
  3433   01033E  361B               	rlcf	(___aodiv@quotient+2)^(0+1280),f,c
  3434   010340  361C               	rlcf	(___aodiv@quotient+3)^(0+1280),f,c
  3435   010342  361D               	rlcf	(___aodiv@quotient+4)^(0+1280),f,c
  3436   010344  361E               	rlcf	(___aodiv@quotient+5)^(0+1280),f,c
  3437   010346  361F               	rlcf	(___aodiv@quotient+6)^(0+1280),f,c
  3438   010348  3620               	rlcf	(___aodiv@quotient+7)^(0+1280),f,c
  3439   01034A  500F               	movf	___aodiv@divisor^(0+1280),w,c
  3440   01034C  5C07               	subwf	___aodiv@dividend^(0+1280),w,c
  3441   01034E  5010               	movf	(___aodiv@divisor+1)^(0+1280),w,c
  3442   010350  5808               	subwfb	(___aodiv@dividend+1)^(0+1280),w,c
  3443   010352  5011               	movf	(___aodiv@divisor+2)^(0+1280),w,c
  3444   010354  5809               	subwfb	(___aodiv@dividend+2)^(0+1280),w,c
  3445   010356  5012               	movf	(___aodiv@divisor+3)^(0+1280),w,c
  3446   010358  580A               	subwfb	(___aodiv@dividend+3)^(0+1280),w,c
  3447   01035A  5013               	movf	(___aodiv@divisor+4)^(0+1280),w,c
  3448   01035C  580B               	subwfb	(___aodiv@dividend+4)^(0+1280),w,c
  3449   01035E  5014               	movf	(___aodiv@divisor+5)^(0+1280),w,c
  3450   010360  580C               	subwfb	(___aodiv@dividend+5)^(0+1280),w,c
  3451   010362  5015               	movf	(___aodiv@divisor+6)^(0+1280),w,c
  3452   010364  580D               	subwfb	(___aodiv@dividend+6)^(0+1280),w,c
  3453   010366  5016               	movf	(___aodiv@divisor+7)^(0+1280),w,c
  3454   010368  580E               	subwfb	(___aodiv@dividend+7)^(0+1280),w,c
  3455   01036A  A0D8               	btfss	status,0,c
  3456   01036C  EFBA  F081         	goto	u2831
  3457   010370  EFBC  F081         	goto	u2830
  3458   010374                     u2831:
  3459   010374  EFCD  F081         	goto	l3945
  3460   010378                     u2830:
  3461   010378  500F               	movf	___aodiv@divisor^(0+1280),w,c
  3462   01037A  5E07               	subwf	___aodiv@dividend^(0+1280),f,c
  3463   01037C  5010               	movf	(___aodiv@divisor+1)^(0+1280),w,c
  3464   01037E  5A08               	subwfb	(___aodiv@dividend+1)^(0+1280),f,c
  3465   010380  5011               	movf	(___aodiv@divisor+2)^(0+1280),w,c
  3466   010382  5A09               	subwfb	(___aodiv@dividend+2)^(0+1280),f,c
  3467   010384  5012               	movf	(___aodiv@divisor+3)^(0+1280),w,c
  3468   010386  5A0A               	subwfb	(___aodiv@dividend+3)^(0+1280),f,c
  3469   010388  5013               	movf	(___aodiv@divisor+4)^(0+1280),w,c
  3470   01038A  5A0B               	subwfb	(___aodiv@dividend+4)^(0+1280),f,c
  3471   01038C  5014               	movf	(___aodiv@divisor+5)^(0+1280),w,c
  3472   01038E  5A0C               	subwfb	(___aodiv@dividend+5)^(0+1280),f,c
  3473   010390  5015               	movf	(___aodiv@divisor+6)^(0+1280),w,c
  3474   010392  5A0D               	subwfb	(___aodiv@dividend+6)^(0+1280),f,c
  3475   010394  5016               	movf	(___aodiv@divisor+7)^(0+1280),w,c
  3476   010396  5A0E               	subwfb	(___aodiv@dividend+7)^(0+1280),f,c
  3477   010398  8019               	bsf	___aodiv@quotient^(0+1280),0,c
  3478   01039A                     l3945:
  3479   01039A  90D8               	bcf	status,0,c
  3480   01039C  3216               	rrcf	(___aodiv@divisor+7)^(0+1280),f,c
  3481   01039E  3215               	rrcf	(___aodiv@divisor+6)^(0+1280),f,c
  3482   0103A0  3214               	rrcf	(___aodiv@divisor+5)^(0+1280),f,c
  3483   0103A2  3213               	rrcf	(___aodiv@divisor+4)^(0+1280),f,c
  3484   0103A4  3212               	rrcf	(___aodiv@divisor+3)^(0+1280),f,c
  3485   0103A6  3211               	rrcf	(___aodiv@divisor+2)^(0+1280),f,c
  3486   0103A8  3210               	rrcf	(___aodiv@divisor+1)^(0+1280),f,c
  3487   0103AA  320F               	rrcf	___aodiv@divisor^(0+1280),f,c
  3488   0103AC  2E17               	decfsz	___aodiv@counter^(0+1280),f,c
  3489   0103AE  EF9C  F081         	goto	l3937
  3490   0103B2                     l3949:
  3491   0103B2  5018               	movf	___aodiv@sign^(0+1280),w,c
  3492   0103B4  B4D8               	btfsc	status,2,c
  3493   0103B6  EFDF  F081         	goto	u2841
  3494   0103BA  EFE1  F081         	goto	u2840
  3495   0103BE                     u2841:
  3496   0103BE  EFF1  F081         	goto	l3953
  3497   0103C2                     u2840:
  3498   0103C2  1E20               	comf	(___aodiv@quotient+7)^(0+1280),f,c
  3499   0103C4  1E1F               	comf	(___aodiv@quotient+6)^(0+1280),f,c
  3500   0103C6  1E1E               	comf	(___aodiv@quotient+5)^(0+1280),f,c
  3501   0103C8  1E1D               	comf	(___aodiv@quotient+4)^(0+1280),f,c
  3502   0103CA  1E1C               	comf	(___aodiv@quotient+3)^(0+1280),f,c
  3503   0103CC  1E1B               	comf	(___aodiv@quotient+2)^(0+1280),f,c
  3504   0103CE  1E1A               	comf	(___aodiv@quotient+1)^(0+1280),f,c
  3505   0103D0  6C19               	negf	___aodiv@quotient^(0+1280),c
  3506   0103D2  0E00               	movlw	0
  3507   0103D4  221A               	addwfc	(___aodiv@quotient+1)^(0+1280),f,c
  3508   0103D6  221B               	addwfc	(___aodiv@quotient+2)^(0+1280),f,c
  3509   0103D8  221C               	addwfc	(___aodiv@quotient+3)^(0+1280),f,c
  3510   0103DA  221D               	addwfc	(___aodiv@quotient+4)^(0+1280),f,c
  3511   0103DC  221E               	addwfc	(___aodiv@quotient+5)^(0+1280),f,c
  3512   0103DE  221F               	addwfc	(___aodiv@quotient+6)^(0+1280),f,c
  3513   0103E0  2220               	addwfc	(___aodiv@quotient+7)^(0+1280),f,c
  3514   0103E2                     l3953:
  3515   0103E2  C519  F507         	movff	___aodiv@quotient,?___aodiv
  3516   0103E6  C51A  F508         	movff	___aodiv@quotient+1,?___aodiv+1
  3517   0103EA  C51B  F509         	movff	___aodiv@quotient+2,?___aodiv+2
  3518   0103EE  C51C  F50A         	movff	___aodiv@quotient+3,?___aodiv+3
  3519   0103F2  C51D  F50B         	movff	___aodiv@quotient+4,?___aodiv+4
  3520   0103F6  C51E  F50C         	movff	___aodiv@quotient+5,?___aodiv+5
  3521   0103FA  C51F  F50D         	movff	___aodiv@quotient+6,?___aodiv+6
  3522   0103FE  C520  F50E         	movff	___aodiv@quotient+7,?___aodiv+7
  3523   010402  0012               	return		;funcret
  3524   010404                     __end_of___aodiv:
  3525                           	callstack 0
  3526                           
  3527 ;; *************** function _SYSTEM_Initialize *****************
  3528 ;; Defined at:
  3529 ;;		line 43 in file "mcc_generated_files/system/src/system.c"
  3530 ;; Parameters:    Size  Location     Type
  3531 ;;		None
  3532 ;; Auto vars:     Size  Location     Type
  3533 ;;		None
  3534 ;; Return value:  Size  Location     Type
  3535 ;;                  1    wreg      void 
  3536 ;; Registers used:
  3537 ;;		wreg, status,2, status,0, cstack
  3538 ;; Tracked objects:
  3539 ;;		On entry : 0/0
  3540 ;;		On exit  : 0/0
  3541 ;;		Unchanged: 0/0
  3542 ;; Data sizes:     COMRAM   BANK5   BANK6   BANK7   BANK8   BANK9  BANK10  BANK11  BANK12  BANK13  BANK14  BANK15  BANK1
      +6  BANK17  BANK18  BANK19  BANK20  BANK21  BANK22  BANK23  BANK24  BANK25  BANK26  BANK27  BANK28  BANK29  BANK30  BANK3
      +1  BANK32  BANK33  BANK34  BANK35  BANK36
  3543 ;;      Params:         0       0       0       0       0       0       0       0       0       0       0       0       
      +0       0       0       0       0       0       0       0       0       0       0       0       0       0       0       
      +0       0       0       0       0       0
  3544 ;;      Locals:         0       0       0       0       0       0       0       0       0       0       0       0       
      +0       0       0       0       0       0       0       0       0       0       0       0       0       0       0       
      +0       0       0       0       0       0
  3545 ;;      Temps:          0       0       0       0       0       0       0       0       0       0       0       0       
      +0       0       0       0       0       0       0       0       0       0       0       0       0       0       0       
      +0       0       0       0       0       0
  3546 ;;      Totals:         0       0       0       0       0       0       0       0       0       0       0       0       
      +0       0       0       0       0       0       0       0       0       0       0       0       0       0       0       
      +0       0       0       0       0       0
  3547 ;;Total ram usage:        0 bytes
  3548 ;; Hardware stack levels used: 1
  3549 ;; Hardware stack levels required when called: 6
  3550 ;; This function calls:
  3551 ;;		_CLOCK_Initialize
  3552 ;;		_I2C1_Initialize
  3553 ;;		_INTERRUPT_Initialize
  3554 ;;		_PIN_MANAGER_Initialize
  3555 ;;		_SPI1_Initialize
  3556 ;;		_Timer0_Initialize
  3557 ;;		_UART1_Initialize
  3558 ;; This function is called by:
  3559 ;;		_main
  3560 ;; This function uses a non-reentrant model
  3561 ;;
  3562                           
  3563                           	psect	text19
  3564   011558                     __ptext19:
  3565                           	callstack 0
  3566   011558                     _SYSTEM_Initialize:
  3567                           	callstack 120
  3568   011558                     
  3569                           ;mcc_generated_files/system/src/system.c: 45:     CLOCK_Initialize();
  3570   011558  ECBB  F08A         	call	_CLOCK_Initialize	;wreg free
  3571                           
  3572                           ;mcc_generated_files/system/src/system.c: 46:     PIN_MANAGER_Initialize();
  3573   01155C  EC24  F084         	call	_PIN_MANAGER_Initialize	;wreg free
  3574   011560                     
  3575                           ;mcc_generated_files/system/src/system.c: 47:     I2C1_Initialize();
  3576   011560  EC74  F088         	call	_I2C1_Initialize	;wreg free
  3577   011564                     
  3578                           ;mcc_generated_files/system/src/system.c: 48:     SPI1_Initialize();
  3579   011564  ECD6  F08A         	call	_SPI1_Initialize	;wreg free
  3580                           
  3581                           ;mcc_generated_files/system/src/system.c: 49:     Timer0_Initialize();
  3582   011568  ECDF  F089         	call	_Timer0_Initialize	;wreg free
  3583                           
  3584                           ;mcc_generated_files/system/src/system.c: 50:     UART1_Initialize();
  3585   01156C  EC7E  F086         	call	_UART1_Initialize	;wreg free
  3586                           
  3587                           ;mcc_generated_files/system/src/system.c: 51:     INTERRUPT_Initialize();
  3588   011570  EC16  F089         	call	_INTERRUPT_Initialize	;wreg free
  3589   011574  0012               	return		;funcret
  3590   011576                     __end_of_SYSTEM_Initialize:
  3591                           	callstack 0
  3592                           
  3593 ;; *************** function _UART1_Initialize *****************
  3594 ;; Defined at:
  3595 ;;		line 118 in file "mcc_generated_files/uart/src/uart1.c"
  3596 ;; Parameters:    Size  Location     Type
  3597 ;;		None
  3598 ;; Auto vars:     Size  Location     Type
  3599 ;;		None
  3600 ;; Return value:  Size  Location     Type
  3601 ;;                  1    wreg      void 
  3602 ;; Registers used:
  3603 ;;		wreg, status,2, status,0, cstack
  3604 ;; Tracked objects:
  3605 ;;		On entry : 0/0
  3606 ;;		On exit  : 0/0
  3607 ;;		Unchanged: 0/0
  3608 ;; Data sizes:     COMRAM   BANK5   BANK6   BANK7   BANK8   BANK9  BANK10  BANK11  BANK12  BANK13  BANK14  BANK15  BANK1
      +6  BANK17  BANK18  BANK19  BANK20  BANK21  BANK22  BANK23  BANK24  BANK25  BANK26  BANK27  BANK28  BANK29  BANK30  BANK3
      +1  BANK32  BANK33  BANK34  BANK35  BANK36
  3609 ;;      Params:         0       0       0       0       0       0       0       0       0       0       0       0       
      +0       0       0       0       0       0       0       0       0       0       0       0       0       0       0       
      +0       0       0       0       0       0
  3610 ;;      Locals:         0       0       0       0       0       0       0       0       0       0       0       0       
      +0       0       0       0       0       0       0       0       0       0       0       0       0       0       0       
      +0       0       0       0       0       0
  3611 ;;      Temps:          0       0       0       0       0       0       0       0       0       0       0       0       
      +0       0       0       0       0       0       0       0       0       0       0       0       0       0       0       
      +0       0       0       0       0       0
  3612 ;;      Totals:         0       0       0       0       0       0       0       0       0       0       0       0       
      +0       0       0       0       0       0       0       0       0       0       0       0       0       0       0       
      +0       0       0       0       0       0
  3613 ;;Total ram usage:        0 bytes
  3614 ;; Hardware stack levels used: 1
  3615 ;; Hardware stack levels required when called: 5
  3616 ;; This function calls:
  3617 ;;		_UART1_FramingErrorCallbackRegister
  3618 ;;		_UART1_OverrunErrorCallbackRegister
  3619 ;;		_UART1_ParityErrorCallbackRegister
  3620 ;; This function is called by:
  3621 ;;		_SYSTEM_Initialize
  3622 ;; This function uses a non-reentrant model
  3623 ;;
  3624                           
  3625                           	psect	text20
  3626   010CFC                     __ptext20:
  3627                           	callstack 0
  3628   010CFC                     _UART1_Initialize:
  3629                           	callstack 120
  3630   010CFC                     
  3631                           ;mcc_generated_files/uart/src/uart1.c: 120:     PIE4bits.U1RXIE = 0;
  3632   010CFC  90A2               	bcf	162,0,c	;volatile
  3633   010CFE                     
  3634                           ;mcc_generated_files/uart/src/uart1.c: 121:     UART1_RxInterruptHandler = UART1_Receive
      +                          ISR;
  3635   010CFE  0E4C               	movlw	low _UART1_ReceiveISR
  3636   010D00  0105               	movlb	5	; () banked
  3637   010D02  6FB8               	movwf	_UART1_RxInterruptHandler& (0+255),b
  3638   010D04  0E0A               	movlw	high _UART1_ReceiveISR
  3639   010D06  6FB9               	movwf	(_UART1_RxInterruptHandler+1)& (0+255),b
  3640   010D08  0E01               	movlw	low (_UART1_ReceiveISR shr (0+16))
  3641   010D0A  6FBA               	movwf	(_UART1_RxInterruptHandler+2)& (0+255),b
  3642   010D0C                     
  3643                           ; BSR set to: 5
  3644                           ;mcc_generated_files/uart/src/uart1.c: 122:     PIE4bits.U1TXIE = 0;
  3645   010D0C  92A2               	bcf	162,1,c	;volatile
  3646                           
  3647                           ;mcc_generated_files/uart/src/uart1.c: 123:     UART1_TxInterruptHandler = UART1_Transmi
      +                          tISR;
  3648   010D0E  0E22               	movlw	low _UART1_TransmitISR
  3649   010D10  6FBB               	movwf	_UART1_TxInterruptHandler& (0+255),b
  3650   010D12  0E13               	movlw	high _UART1_TransmitISR
  3651   010D14  6FBC               	movwf	(_UART1_TxInterruptHandler+1)& (0+255),b
  3652   010D16  0E01               	movlw	low (_UART1_TransmitISR shr (0+16))
  3653   010D18  6FBD               	movwf	(_UART1_TxInterruptHandler+2)& (0+255),b
  3654   010D1A                     
  3655                           ; BSR set to: 5
  3656                           ;mcc_generated_files/uart/src/uart1.c: 128:     U1RXB = 0x0;
  3657   010D1A  0E00               	movlw	0
  3658   010D1C  0102               	movlb	2	; () banked
  3659   010D1E  6FA1               	movwf	161,b	;volatile
  3660   010D20                     
  3661                           ; BSR set to: 2
  3662                           ;mcc_generated_files/uart/src/uart1.c: 130:     U1RXCHK = 0x0;
  3663   010D20  0E00               	movlw	0
  3664   010D22  6FA2               	movwf	162,b	;volatile
  3665   010D24                     
  3666                           ; BSR set to: 2
  3667                           ;mcc_generated_files/uart/src/uart1.c: 132:     U1TXB = 0x0;
  3668   010D24  0E00               	movlw	0
  3669   010D26  6FA3               	movwf	163,b	;volatile
  3670   010D28                     
  3671                           ; BSR set to: 2
  3672                           ;mcc_generated_files/uart/src/uart1.c: 134:     U1TXCHK = 0x0;
  3673   010D28  0E00               	movlw	0
  3674   010D2A  6FA4               	movwf	164,b	;volatile
  3675   010D2C                     
  3676                           ; BSR set to: 2
  3677                           ;mcc_generated_files/uart/src/uart1.c: 136:     U1P1L = 0x0;
  3678   010D2C  0E00               	movlw	0
  3679   010D2E  6FA5               	movwf	165,b	;volatile
  3680   010D30                     
  3681                           ; BSR set to: 2
  3682                           ;mcc_generated_files/uart/src/uart1.c: 138:     U1P1H = 0x0;
  3683   010D30  0E00               	movlw	0
  3684   010D32  6FA6               	movwf	166,b	;volatile
  3685   010D34                     
  3686                           ; BSR set to: 2
  3687                           ;mcc_generated_files/uart/src/uart1.c: 140:     U1P2L = 0x0;
  3688   010D34  0E00               	movlw	0
  3689   010D36  6FA7               	movwf	167,b	;volatile
  3690   010D38                     
  3691                           ; BSR set to: 2
  3692                           ;mcc_generated_files/uart/src/uart1.c: 142:     U1P2H = 0x0;
  3693   010D38  0E00               	movlw	0
  3694   010D3A  6FA8               	movwf	168,b	;volatile
  3695   010D3C                     
  3696                           ; BSR set to: 2
  3697                           ;mcc_generated_files/uart/src/uart1.c: 144:     U1P3L = 0x0;
  3698   010D3C  0E00               	movlw	0
  3699   010D3E  6FA9               	movwf	169,b	;volatile
  3700   010D40                     
  3701                           ; BSR set to: 2
  3702                           ;mcc_generated_files/uart/src/uart1.c: 146:     U1P3H = 0x0;
  3703   010D40  0E00               	movlw	0
  3704   010D42  6FAA               	movwf	170,b	;volatile
  3705   010D44                     
  3706                           ; BSR set to: 2
  3707                           ;mcc_generated_files/uart/src/uart1.c: 148:     U1CON0 = 0xB0;
  3708   010D44  0EB0               	movlw	176
  3709   010D46  6FAB               	movwf	171,b	;volatile
  3710   010D48                     
  3711                           ; BSR set to: 2
  3712                           ;mcc_generated_files/uart/src/uart1.c: 150:     U1CON1 = 0x80;
  3713   010D48  0E80               	movlw	128
  3714   010D4A  6FAC               	movwf	172,b	;volatile
  3715   010D4C                     
  3716                           ; BSR set to: 2
  3717                           ;mcc_generated_files/uart/src/uart1.c: 152:     U1CON2 = 0x8;
  3718   010D4C  0E08               	movlw	8
  3719   010D4E  6FAD               	movwf	173,b	;volatile
  3720   010D50                     
  3721                           ; BSR set to: 2
  3722                           ;mcc_generated_files/uart/src/uart1.c: 154:     U1BRGL = 0xE1;
  3723   010D50  0EE1               	movlw	225
  3724   010D52  6FAE               	movwf	174,b	;volatile
  3725   010D54                     
  3726                           ; BSR set to: 2
  3727                           ;mcc_generated_files/uart/src/uart1.c: 156:     U1BRGH = 0x4;
  3728   010D54  0E04               	movlw	4
  3729   010D56  6FAF               	movwf	175,b	;volatile
  3730   010D58                     
  3731                           ; BSR set to: 2
  3732                           ;mcc_generated_files/uart/src/uart1.c: 158:     U1FIFO = 0x20;
  3733   010D58  0E20               	movlw	32
  3734   010D5A  6FB0               	movwf	176,b	;volatile
  3735   010D5C                     
  3736                           ; BSR set to: 2
  3737                           ;mcc_generated_files/uart/src/uart1.c: 160:     U1UIR = 0x0;
  3738   010D5C  0E00               	movlw	0
  3739   010D5E  6FB1               	movwf	177,b	;volatile
  3740   010D60                     
  3741                           ; BSR set to: 2
  3742                           ;mcc_generated_files/uart/src/uart1.c: 162:     U1ERRIR = 0x0;
  3743   010D60  0E00               	movlw	0
  3744   010D62  6FB2               	movwf	178,b	;volatile
  3745   010D64                     
  3746                           ; BSR set to: 2
  3747                           ;mcc_generated_files/uart/src/uart1.c: 164:     U1ERRIE = 0x0;
  3748   010D64  0E00               	movlw	0
  3749   010D66  6FB3               	movwf	179,b	;volatile
  3750   010D68                     
  3751                           ; BSR set to: 2
  3752                           ;mcc_generated_files/uart/src/uart1.c: 166:     UART1_FramingErrorCallbackRegister(UART1
      +                          _DefaultFramingErrorCallback);
  3753   010D68  0E40               	movlw	low _UART1_DefaultFramingErrorCallback
  3754   010D6A  6E07               	movwf	UART1_FramingErrorCallbackRegister@callbackHandler^(0+1280),c
  3755   010D6C  0E17               	movlw	high _UART1_DefaultFramingErrorCallback
  3756   010D6E  6E08               	movwf	(UART1_FramingErrorCallbackRegister@callbackHandler+1)^(0+1280),c
  3757   010D70  0E01               	movlw	low (_UART1_DefaultFramingErrorCallback shr (0+16))
  3758   010D72  6E09               	movwf	(UART1_FramingErrorCallbackRegister@callbackHandler+2)^(0+1280),c
  3759   010D74  EC7B  F08A         	call	_UART1_FramingErrorCallbackRegister	;wreg free
  3760   010D78                     
  3761                           ;mcc_generated_files/uart/src/uart1.c: 167:     UART1_OverrunErrorCallbackRegister(UART1
      +                          _DefaultOverrunErrorCallback);
  3762   010D78  0E3E               	movlw	low _UART1_DefaultOverrunErrorCallback
  3763   010D7A  6E07               	movwf	UART1_OverrunErrorCallbackRegister@callbackHandler^(0+1280),c
  3764   010D7C  0E17               	movlw	high _UART1_DefaultOverrunErrorCallback
  3765   010D7E  6E08               	movwf	(UART1_OverrunErrorCallbackRegister@callbackHandler+1)^(0+1280),c
  3766   010D80  0E01               	movlw	low (_UART1_DefaultOverrunErrorCallback shr (0+16))
  3767   010D82  6E09               	movwf	(UART1_OverrunErrorCallbackRegister@callbackHandler+2)^(0+1280),c
  3768   010D84  EC6A  F08A         	call	_UART1_OverrunErrorCallbackRegister	;wreg free
  3769   010D88                     
  3770                           ;mcc_generated_files/uart/src/uart1.c: 168:     UART1_ParityErrorCallbackRegister(UART1_
      +                          DefaultParityErrorCallback);
  3771   010D88  0E00               	movlw	0
  3772   010D8A  6E07               	movwf	UART1_ParityErrorCallbackRegister@callbackHandler^(0+1280),c
  3773   010D8C  0E00               	movlw	0
  3774   010D8E  6E08               	movwf	(UART1_ParityErrorCallbackRegister@callbackHandler+1)^(0+1280),c
  3775   010D90  0E00               	movlw	0
  3776   010D92  6E09               	movwf	(UART1_ParityErrorCallbackRegister@callbackHandler+2)^(0+1280),c
  3777   010D94  EC59  F08A         	call	_UART1_ParityErrorCallbackRegister	;wreg free
  3778   010D98                     
  3779                           ;mcc_generated_files/uart/src/uart1.c: 170:     uart1RxLastError.status = 0;
  3780   010D98  0E00               	movlw	0
  3781   010D9A  0105               	movlb	5	; () banked
  3782   010D9C  6FC6               	movwf	(_uart1RxLastError+1)& (0+255),b	;volatile
  3783   010D9E  0E00               	movlw	0
  3784   010DA0  6FC5               	movwf	_uart1RxLastError& (0+255),b	;volatile
  3785   010DA2                     
  3786                           ; BSR set to: 5
  3787                           ;mcc_generated_files/uart/src/uart1.c: 171:     uart1TxHead = 0;
  3788   010DA2  0E00               	movlw	0
  3789   010DA4  6E59               	movwf	_uart1TxHead^(0+1280),c	;volatile
  3790   010DA6                     
  3791                           ; BSR set to: 5
  3792                           ;mcc_generated_files/uart/src/uart1.c: 172:     uart1TxTail = 0;
  3793   010DA6  0E00               	movlw	0
  3794   010DA8  6E58               	movwf	_uart1TxTail^(0+1280),c	;volatile
  3795   010DAA                     
  3796                           ; BSR set to: 5
  3797                           ;mcc_generated_files/uart/src/uart1.c: 173:     uart1TxBufferRemaining = sizeof(uart1TxB
      +                          uffer);
  3798   010DAA  0E40               	movlw	64
  3799   010DAC  6E57               	movwf	_uart1TxBufferRemaining^(0+1280),c	;volatile
  3800   010DAE                     
  3801                           ; BSR set to: 5
  3802                           ;mcc_generated_files/uart/src/uart1.c: 174:     uart1RxHead = 0;
  3803   010DAE  0E00               	movlw	0
  3804   010DB0  6E56               	movwf	_uart1RxHead^(0+1280),c	;volatile
  3805   010DB2                     
  3806                           ; BSR set to: 5
  3807                           ;mcc_generated_files/uart/src/uart1.c: 175:     uart1RxTail = 0;
  3808   010DB2  0E00               	movlw	0
  3809   010DB4  6E55               	movwf	_uart1RxTail^(0+1280),c	;volatile
  3810   010DB6                     
  3811                           ; BSR set to: 5
  3812                           ;mcc_generated_files/uart/src/uart1.c: 176:     uart1RxCount = 0;
  3813   010DB6  0E00               	movlw	0
  3814   010DB8  6E54               	movwf	_uart1RxCount^(0+1280),c	;volatile
  3815   010DBA                     
  3816                           ; BSR set to: 5
  3817                           ;mcc_generated_files/uart/src/uart1.c: 177:     PIE4bits.U1RXIE = 1;
  3818   010DBA  80A2               	bsf	162,0,c	;volatile
  3819   010DBC                     
  3820                           ; BSR set to: 5
  3821   010DBC  0012               	return		;funcret
  3822   010DBE                     __end_of_UART1_Initialize:
  3823                           	callstack 0
  3824                           
  3825 ;; *************** function _UART1_ParityErrorCallbackRegister *****************
  3826 ;; Defined at:
  3827 ;;		line 475 in file "mcc_generated_files/uart/src/uart1.c"
  3828 ;; Parameters:    Size  Location     Type
  3829 ;;  callbackHand    3    6[COMRAM] PTR FTN()void 
  3830 ;;		 -> UART1_DefaultParityErrorCallback(1), 
  3831 ;; Auto vars:     Size  Location     Type
  3832 ;;		None
  3833 ;; Return value:  Size  Location     Type
  3834 ;;                  1    wreg      void 
  3835 ;; Registers used:
  3836 ;;		wreg, status,2, status,0
  3837 ;; Tracked objects:
  3838 ;;		On entry : 0/0
  3839 ;;		On exit  : 0/0
  3840 ;;		Unchanged: 0/0
  3841 ;; Data sizes:     COMRAM   BANK5   BANK6   BANK7   BANK8   BANK9  BANK10  BANK11  BANK12  BANK13  BANK14  BANK15  BANK1
      +6  BANK17  BANK18  BANK19  BANK20  BANK21  BANK22  BANK23  BANK24  BANK25  BANK26  BANK27  BANK28  BANK29  BANK30  BANK3
      +1  BANK32  BANK33  BANK34  BANK35  BANK36
  3842 ;;      Params:         3       0       0       0       0       0       0       0       0       0       0       0       
      +0       0       0       0       0       0       0       0       0       0       0       0       0       0       0       
      +0       0       0       0       0       0
  3843 ;;      Locals:         0       0       0       0       0       0       0       0       0       0       0       0       
      +0       0       0       0       0       0       0       0       0       0       0       0       0       0       0       
      +0       0       0       0       0       0
  3844 ;;      Temps:          0       0       0       0       0       0       0       0       0       0       0       0       
      +0       0       0       0       0       0       0       0       0       0       0       0       0       0       0       
      +0       0       0       0       0       0
  3845 ;;      Totals:         3       0       0       0       0       0       0       0       0       0       0       0       
      +0       0       0       0       0       0       0       0       0       0       0       0       0       0       0       
      +0       0       0       0       0       0
  3846 ;;Total ram usage:        3 bytes
  3847 ;; Hardware stack levels used: 1
  3848 ;; Hardware stack levels required when called: 4
  3849 ;; This function calls:
  3850 ;;		Nothing
  3851 ;; This function is called by:
  3852 ;;		_UART1_Initialize
  3853 ;; This function uses a non-reentrant model
  3854 ;;
  3855                           
  3856                           	psect	text21
  3857   0114B2                     __ptext21:
  3858                           	callstack 0
  3859   0114B2                     _UART1_ParityErrorCallbackRegister:
  3860                           	callstack 120
  3861   0114B2                     
  3862                           ;mcc_generated_files/uart/src/uart1.c: 475: void UART1_ParityErrorCallbackRegister(void 
      +                          (* callbackHandler)(void));mcc_generated_files/uart/src/uart1.c: 476: {;mcc_generated_fi
      +                          les/uart/src/uart1.c: 477:     if(((void*)0) != callbackHandler)
  3863   0114B2  5007               	movf	UART1_ParityErrorCallbackRegister@callbackHandler^(0+1280),w,c
  3864   0114B4  1008               	iorwf	(UART1_ParityErrorCallbackRegister@callbackHandler+1)^(0+1280),w,c
  3865   0114B6  1009               	iorwf	(UART1_ParityErrorCallbackRegister@callbackHandler+2)^(0+1280),w,c
  3866   0114B8  B4D8               	btfsc	status,2,c
  3867   0114BA  EF61  F08A         	goto	u1821
  3868   0114BE  EF63  F08A         	goto	u1820
  3869   0114C2                     u1821:
  3870   0114C2  EF69  F08A         	goto	l986
  3871   0114C6                     u1820:
  3872   0114C6                     
  3873                           ;mcc_generated_files/uart/src/uart1.c: 478:     {;mcc_generated_files/uart/src/uart1.c: 
      +                          479:         UART1_ParityErrorHandler = callbackHandler;
  3874   0114C6  C507  F5A3         	movff	UART1_ParityErrorCallbackRegister@callbackHandler,_UART1_ParityErrorHandler
  3875   0114CA  C508  F5A4         	movff	UART1_ParityErrorCallbackRegister@callbackHandler+1,_UART1_ParityErrorHandler+1
  3876   0114CE  C509  F5A5         	movff	UART1_ParityErrorCallbackRegister@callbackHandler+2,_UART1_ParityErrorHandler+2
  3877   0114D2                     l986:
  3878   0114D2  0012               	return		;funcret
  3879   0114D4                     __end_of_UART1_ParityErrorCallbackRegister:
  3880                           	callstack 0
  3881                           
  3882 ;; *************** function _UART1_OverrunErrorCallbackRegister *****************
  3883 ;; Defined at:
  3884 ;;		line 467 in file "mcc_generated_files/uart/src/uart1.c"
  3885 ;; Parameters:    Size  Location     Type
  3886 ;;  callbackHand    3    6[COMRAM] PTR FTN()void 
  3887 ;;		 -> UART1_DefaultOverrunErrorCallback(1), 
  3888 ;; Auto vars:     Size  Location     Type
  3889 ;;		None
  3890 ;; Return value:  Size  Location     Type
  3891 ;;                  1    wreg      void 
  3892 ;; Registers used:
  3893 ;;		wreg, status,2, status,0
  3894 ;; Tracked objects:
  3895 ;;		On entry : 0/0
  3896 ;;		On exit  : 0/0
  3897 ;;		Unchanged: 0/0
  3898 ;; Data sizes:     COMRAM   BANK5   BANK6   BANK7   BANK8   BANK9  BANK10  BANK11  BANK12  BANK13  BANK14  BANK15  BANK1
      +6  BANK17  BANK18  BANK19  BANK20  BANK21  BANK22  BANK23  BANK24  BANK25  BANK26  BANK27  BANK28  BANK29  BANK30  BANK3
      +1  BANK32  BANK33  BANK34  BANK35  BANK36
  3899 ;;      Params:         3       0       0       0       0       0       0       0       0       0       0       0       
      +0       0       0       0       0       0       0       0       0       0       0       0       0       0       0       
      +0       0       0       0       0       0
  3900 ;;      Locals:         0       0       0       0       0       0       0       0       0       0       0       0       
      +0       0       0       0       0       0       0       0       0       0       0       0       0       0       0       
      +0       0       0       0       0       0
  3901 ;;      Temps:          0       0       0       0       0       0       0       0       0       0       0       0       
      +0       0       0       0       0       0       0       0       0       0       0       0       0       0       0       
      +0       0       0       0       0       0
  3902 ;;      Totals:         3       0       0       0       0       0       0       0       0       0       0       0       
      +0       0       0       0       0       0       0       0       0       0       0       0       0       0       0       
      +0       0       0       0       0       0
  3903 ;;Total ram usage:        3 bytes
  3904 ;; Hardware stack levels used: 1
  3905 ;; Hardware stack levels required when called: 4
  3906 ;; This function calls:
  3907 ;;		Nothing
  3908 ;; This function is called by:
  3909 ;;		_UART1_Initialize
  3910 ;; This function uses a non-reentrant model
  3911 ;;
  3912                           
  3913                           	psect	text22
  3914   0114D4                     __ptext22:
  3915                           	callstack 0
  3916   0114D4                     _UART1_OverrunErrorCallbackRegister:
  3917                           	callstack 120
  3918   0114D4                     
  3919                           ;mcc_generated_files/uart/src/uart1.c: 467: void UART1_OverrunErrorCallbackRegister(void
      +                           (* callbackHandler)(void));mcc_generated_files/uart/src/uart1.c: 468: {;mcc_generated_f
      +                          iles/uart/src/uart1.c: 469:     if(((void*)0) != callbackHandler)
  3920   0114D4  5007               	movf	UART1_OverrunErrorCallbackRegister@callbackHandler^(0+1280),w,c
  3921   0114D6  1008               	iorwf	(UART1_OverrunErrorCallbackRegister@callbackHandler+1)^(0+1280),w,c
  3922   0114D8  1009               	iorwf	(UART1_OverrunErrorCallbackRegister@callbackHandler+2)^(0+1280),w,c
  3923   0114DA  B4D8               	btfsc	status,2,c
  3924   0114DC  EF72  F08A         	goto	u1811
  3925   0114E0  EF74  F08A         	goto	u1810
  3926   0114E4                     u1811:
  3927   0114E4  EF7A  F08A         	goto	l982
  3928   0114E8                     u1810:
  3929   0114E8                     
  3930                           ;mcc_generated_files/uart/src/uart1.c: 470:     {;mcc_generated_files/uart/src/uart1.c: 
      +                          471:         UART1_OverrunErrorHandler = callbackHandler;
  3931   0114E8  C507  F5A6         	movff	UART1_OverrunErrorCallbackRegister@callbackHandler,_UART1_OverrunErrorHandler
  3932   0114EC  C508  F5A7         	movff	UART1_OverrunErrorCallbackRegister@callbackHandler+1,_UART1_OverrunErrorHandler+1
  3933   0114F0  C509  F5A8         	movff	UART1_OverrunErrorCallbackRegister@callbackHandler+2,_UART1_OverrunErrorHandler+2
  3934   0114F4                     l982:
  3935   0114F4  0012               	return		;funcret
  3936   0114F6                     __end_of_UART1_OverrunErrorCallbackRegister:
  3937                           	callstack 0
  3938                           
  3939 ;; *************** function _UART1_FramingErrorCallbackRegister *****************
  3940 ;; Defined at:
  3941 ;;		line 459 in file "mcc_generated_files/uart/src/uart1.c"
  3942 ;; Parameters:    Size  Location     Type
  3943 ;;  callbackHand    3    6[COMRAM] PTR FTN()void 
  3944 ;;		 -> UART1_DefaultFramingErrorCallback(1), 
  3945 ;; Auto vars:     Size  Location     Type
  3946 ;;		None
  3947 ;; Return value:  Size  Location     Type
  3948 ;;                  1    wreg      void 
  3949 ;; Registers used:
  3950 ;;		wreg, status,2, status,0
  3951 ;; Tracked objects:
  3952 ;;		On entry : 0/0
  3953 ;;		On exit  : 0/0
  3954 ;;		Unchanged: 0/0
  3955 ;; Data sizes:     COMRAM   BANK5   BANK6   BANK7   BANK8   BANK9  BANK10  BANK11  BANK12  BANK13  BANK14  BANK15  BANK1
      +6  BANK17  BANK18  BANK19  BANK20  BANK21  BANK22  BANK23  BANK24  BANK25  BANK26  BANK27  BANK28  BANK29  BANK30  BANK3
      +1  BANK32  BANK33  BANK34  BANK35  BANK36
  3956 ;;      Params:         3       0       0       0       0       0       0       0       0       0       0       0       
      +0       0       0       0       0       0       0       0       0       0       0       0       0       0       0       
      +0       0       0       0       0       0
  3957 ;;      Locals:         0       0       0       0       0       0       0       0       0       0       0       0       
      +0       0       0       0       0       0       0       0       0       0       0       0       0       0       0       
      +0       0       0       0       0       0
  3958 ;;      Temps:          0       0       0       0       0       0       0       0       0       0       0       0       
      +0       0       0       0       0       0       0       0       0       0       0       0       0       0       0       
      +0       0       0       0       0       0
  3959 ;;      Totals:         3       0       0       0       0       0       0       0       0       0       0       0       
      +0       0       0       0       0       0       0       0       0       0       0       0       0       0       0       
      +0       0       0       0       0       0
  3960 ;;Total ram usage:        3 bytes
  3961 ;; Hardware stack levels used: 1
  3962 ;; Hardware stack levels required when called: 4
  3963 ;; This function calls:
  3964 ;;		Nothing
  3965 ;; This function is called by:
  3966 ;;		_UART1_Initialize
  3967 ;; This function uses a non-reentrant model
  3968 ;;
  3969                           
  3970                           	psect	text23
  3971   0114F6                     __ptext23:
  3972                           	callstack 0
  3973   0114F6                     _UART1_FramingErrorCallbackRegister:
  3974                           	callstack 120
  3975   0114F6                     
  3976                           ;mcc_generated_files/uart/src/uart1.c: 459: void UART1_FramingErrorCallbackRegister(void
      +                           (* callbackHandler)(void));mcc_generated_files/uart/src/uart1.c: 460: {;mcc_generated_f
      +                          iles/uart/src/uart1.c: 461:     if(((void*)0) != callbackHandler)
  3977   0114F6  5007               	movf	UART1_FramingErrorCallbackRegister@callbackHandler^(0+1280),w,c
  3978   0114F8  1008               	iorwf	(UART1_FramingErrorCallbackRegister@callbackHandler+1)^(0+1280),w,c
  3979   0114FA  1009               	iorwf	(UART1_FramingErrorCallbackRegister@callbackHandler+2)^(0+1280),w,c
  3980   0114FC  B4D8               	btfsc	status,2,c
  3981   0114FE  EF83  F08A         	goto	u1801
  3982   011502  EF85  F08A         	goto	u1800
  3983   011506                     u1801:
  3984   011506  EF8B  F08A         	goto	l978
  3985   01150A                     u1800:
  3986   01150A                     
  3987                           ;mcc_generated_files/uart/src/uart1.c: 462:     {;mcc_generated_files/uart/src/uart1.c: 
      +                          463:         UART1_FramingErrorHandler = callbackHandler;
  3988   01150A  C507  F5A9         	movff	UART1_FramingErrorCallbackRegister@callbackHandler,_UART1_FramingErrorHandler
  3989   01150E  C508  F5AA         	movff	UART1_FramingErrorCallbackRegister@callbackHandler+1,_UART1_FramingErrorHandler+1
  3990   011512  C509  F5AB         	movff	UART1_FramingErrorCallbackRegister@callbackHandler+2,_UART1_FramingErrorHandler+2
  3991   011516                     l978:
  3992   011516  0012               	return		;funcret
  3993   011518                     __end_of_UART1_FramingErrorCallbackRegister:
  3994                           	callstack 0
  3995                           
  3996 ;; *************** function _Timer0_Initialize *****************
  3997 ;; Defined at:
  3998 ;;		line 49 in file "mcc_generated_files/timer/src/tmr0.c"
  3999 ;; Parameters:    Size  Location     Type
  4000 ;;		None
  4001 ;; Auto vars:     Size  Location     Type
  4002 ;;		None
  4003 ;; Return value:  Size  Location     Type
  4004 ;;                  1    wreg      void 
  4005 ;; Registers used:
  4006 ;;		wreg, status,2, status,0, cstack
  4007 ;; Tracked objects:
  4008 ;;		On entry : 0/0
  4009 ;;		On exit  : 0/0
  4010 ;;		Unchanged: 0/0
  4011 ;; Data sizes:     COMRAM   BANK5   BANK6   BANK7   BANK8   BANK9  BANK10  BANK11  BANK12  BANK13  BANK14  BANK15  BANK1
      +6  BANK17  BANK18  BANK19  BANK20  BANK21  BANK22  BANK23  BANK24  BANK25  BANK26  BANK27  BANK28  BANK29  BANK30  BANK3
      +1  BANK32  BANK33  BANK34  BANK35  BANK36
  4012 ;;      Params:         0       0       0       0       0       0       0       0       0       0       0       0       
      +0       0       0       0       0       0       0       0       0       0       0       0       0       0       0       
      +0       0       0       0       0       0
  4013 ;;      Locals:         0       0       0       0       0       0       0       0       0       0       0       0       
      +0       0       0       0       0       0       0       0       0       0       0       0       0       0       0       
      +0       0       0       0       0       0
  4014 ;;      Temps:          0       0       0       0       0       0       0       0       0       0       0       0       
      +0       0       0       0       0       0       0       0       0       0       0       0       0       0       0       
      +0       0       0       0       0       0
  4015 ;;      Totals:         0       0       0       0       0       0       0       0       0       0       0       0       
      +0       0       0       0       0       0       0       0       0       0       0       0       0       0       0       
      +0       0       0       0       0       0
  4016 ;;Total ram usage:        0 bytes
  4017 ;; Hardware stack levels used: 1
  4018 ;; Hardware stack levels required when called: 5
  4019 ;; This function calls:
  4020 ;;		_Timer0_OverflowCallbackRegister
  4021 ;; This function is called by:
  4022 ;;		_SYSTEM_Initialize
  4023 ;; This function uses a non-reentrant model
  4024 ;;
  4025                           
  4026                           	psect	text24
  4027   0113BE                     __ptext24:
  4028                           	callstack 0
  4029   0113BE                     _Timer0_Initialize:
  4030                           	callstack 120
  4031   0113BE                     
  4032                           ;mcc_generated_files/timer/src/tmr0.c: 52:     TMR0H = 0x95;
  4033   0113BE  0E95               	movlw	149
  4034   0113C0  0103               	movlb	3	; () banked
  4035   0113C2  6F19               	movwf	25,b	;volatile
  4036                           
  4037                           ;mcc_generated_files/timer/src/tmr0.c: 55:     TMR0L = 0x0;
  4038   0113C4  0E00               	movlw	0
  4039   0113C6  6F18               	movwf	24,b	;volatile
  4040                           
  4041                           ;mcc_generated_files/timer/src/tmr0.c: 58:     T0CON1 = 0x65;
  4042   0113C8  0E65               	movlw	101
  4043   0113CA  6F1B               	movwf	27,b	;volatile
  4044   0113CC                     
  4045                           ; BSR set to: 3
  4046                           ;mcc_generated_files/timer/src/tmr0.c: 62:     Timer0_OverflowCallbackRegister(Timer0_De
      +                          faultOverflowCallback);
  4047   0113CC  0E42               	movlw	low _Timer0_DefaultOverflowCallback
  4048   0113CE  6E07               	movwf	Timer0_OverflowCallbackRegister@CallbackHandler^(0+1280),c
  4049   0113D0  0E17               	movlw	high _Timer0_DefaultOverflowCallback
  4050   0113D2  6E08               	movwf	(Timer0_OverflowCallbackRegister@CallbackHandler+1)^(0+1280),c
  4051   0113D4  0E01               	movlw	low (_Timer0_DefaultOverflowCallback shr (0+16))
  4052   0113D6  6E09               	movwf	(Timer0_OverflowCallbackRegister@CallbackHandler+2)^(0+1280),c
  4053   0113D8  EC59  F08B         	call	_Timer0_OverflowCallbackRegister	;wreg free
  4054   0113DC                     
  4055                           ;mcc_generated_files/timer/src/tmr0.c: 65:     PIR3bits.TMR0IF = 0;
  4056   0113DC  9EB1               	bcf	177,7,c	;volatile
  4057   0113DE                     
  4058                           ;mcc_generated_files/timer/src/tmr0.c: 68:     PIE3bits.TMR0IE = 1;
  4059   0113DE  8EA1               	bsf	161,7,c	;volatile
  4060   0113E0                     
  4061                           ;mcc_generated_files/timer/src/tmr0.c: 71:     T0CON0 = 0x89;
  4062   0113E0  0E89               	movlw	137
  4063   0113E2  0103               	movlb	3	; () banked
  4064   0113E4  6F1A               	movwf	26,b	;volatile
  4065   0113E6                     
  4066                           ; BSR set to: 3
  4067   0113E6  0012               	return		;funcret
  4068   0113E8                     __end_of_Timer0_Initialize:
  4069                           	callstack 0
  4070                           
  4071 ;; *************** function _Timer0_OverflowCallbackRegister *****************
  4072 ;; Defined at:
  4073 ;;		line 116 in file "mcc_generated_files/timer/src/tmr0.c"
  4074 ;; Parameters:    Size  Location     Type
  4075 ;;  CallbackHand    3    6[COMRAM] PTR FTN()void 
  4076 ;;		 -> Task_synch(1), Timer0_DefaultOverflowCallback(1), 
  4077 ;; Auto vars:     Size  Location     Type
  4078 ;;		None
  4079 ;; Return value:  Size  Location     Type
  4080 ;;                  1    wreg      void 
  4081 ;; Registers used:
  4082 ;;		wreg, status,2, status,0
  4083 ;; Tracked objects:
  4084 ;;		On entry : 0/0
  4085 ;;		On exit  : 0/0
  4086 ;;		Unchanged: 0/0
  4087 ;; Data sizes:     COMRAM   BANK5   BANK6   BANK7   BANK8   BANK9  BANK10  BANK11  BANK12  BANK13  BANK14  BANK15  BANK1
      +6  BANK17  BANK18  BANK19  BANK20  BANK21  BANK22  BANK23  BANK24  BANK25  BANK26  BANK27  BANK28  BANK29  BANK30  BANK3
      +1  BANK32  BANK33  BANK34  BANK35  BANK36
  4088 ;;      Params:         3       0       0       0       0       0       0       0       0       0       0       0       
      +0       0       0       0       0       0       0       0       0       0       0       0       0       0       0       
      +0       0       0       0       0       0
  4089 ;;      Locals:         0       0       0       0       0       0       0       0       0       0       0       0       
      +0       0       0       0       0       0       0       0       0       0       0       0       0       0       0       
      +0       0       0       0       0       0
  4090 ;;      Temps:          0       0       0       0       0       0       0       0       0       0       0       0       
      +0       0       0       0       0       0       0       0       0       0       0       0       0       0       0       
      +0       0       0       0       0       0
  4091 ;;      Totals:         3       0       0       0       0       0       0       0       0       0       0       0       
      +0       0       0       0       0       0       0       0       0       0       0       0       0       0       0       
      +0       0       0       0       0       0
  4092 ;;Total ram usage:        3 bytes
  4093 ;; Hardware stack levels used: 1
  4094 ;; Hardware stack levels required when called: 4
  4095 ;; This function calls:
  4096 ;;		Nothing
  4097 ;; This function is called by:
  4098 ;;		_Timer0_Initialize
  4099 ;;		_main
  4100 ;; This function uses a non-reentrant model
  4101 ;;
  4102                           
  4103                           	psect	text25
  4104   0116B2                     __ptext25:
  4105                           	callstack 0
  4106   0116B2                     _Timer0_OverflowCallbackRegister:
  4107                           	callstack 122
  4108   0116B2                     
  4109                           ;mcc_generated_files/timer/src/tmr0.c: 116: void Timer0_OverflowCallbackRegister(void (*
      +                           CallbackHandler)(void));mcc_generated_files/timer/src/tmr0.c: 117: {;mcc_generated_file
      +                          s/timer/src/tmr0.c: 118:     Timer0_OverflowCallback = CallbackHandler;
  4110   0116B2  C507  F5AC         	movff	Timer0_OverflowCallbackRegister@CallbackHandler,_Timer0_OverflowCallback
  4111   0116B6  C508  F5AD         	movff	Timer0_OverflowCallbackRegister@CallbackHandler+1,_Timer0_OverflowCallback+1
  4112   0116BA  C509  F5AE         	movff	Timer0_OverflowCallbackRegister@CallbackHandler+2,_Timer0_OverflowCallback+2
  4113   0116BE  0012               	return		;funcret
  4114   0116C0                     __end_of_Timer0_OverflowCallbackRegister:
  4115                           	callstack 0
  4116                           
  4117 ;; *************** function _SPI1_Initialize *****************
  4118 ;; Defined at:
  4119 ;;		line 70 in file "mcc_generated_files/spi/src/spi1.c"
  4120 ;; Parameters:    Size  Location     Type
  4121 ;;		None
  4122 ;; Auto vars:     Size  Location     Type
  4123 ;;		None
  4124 ;; Return value:  Size  Location     Type
  4125 ;;                  1    wreg      void 
  4126 ;; Registers used:
  4127 ;;		wreg, status,2
  4128 ;; Tracked objects:
  4129 ;;		On entry : 0/0
  4130 ;;		On exit  : 0/0
  4131 ;;		Unchanged: 0/0
  4132 ;; Data sizes:     COMRAM   BANK5   BANK6   BANK7   BANK8   BANK9  BANK10  BANK11  BANK12  BANK13  BANK14  BANK15  BANK1
      +6  BANK17  BANK18  BANK19  BANK20  BANK21  BANK22  BANK23  BANK24  BANK25  BANK26  BANK27  BANK28  BANK29  BANK30  BANK3
      +1  BANK32  BANK33  BANK34  BANK35  BANK36
  4133 ;;      Params:         0       0       0       0       0       0       0       0       0       0       0       0       
      +0       0       0       0       0       0       0       0       0       0       0       0       0       0       0       
      +0       0       0       0       0       0
  4134 ;;      Locals:         0       0       0       0       0       0       0       0       0       0       0       0       
      +0       0       0       0       0       0       0       0       0       0       0       0       0       0       0       
      +0       0       0       0       0       0
  4135 ;;      Temps:          0       0       0       0       0       0       0       0       0       0       0       0       
      +0       0       0       0       0       0       0       0       0       0       0       0       0       0       0       
      +0       0       0       0       0       0
  4136 ;;      Totals:         0       0       0       0       0       0       0       0       0       0       0       0       
      +0       0       0       0       0       0       0       0       0       0       0       0       0       0       0       
      +0       0       0       0       0       0
  4137 ;;Total ram usage:        0 bytes
  4138 ;; Hardware stack levels used: 1
  4139 ;; Hardware stack levels required when called: 4
  4140 ;; This function calls:
  4141 ;;		Nothing
  4142 ;; This function is called by:
  4143 ;;		_SYSTEM_Initialize
  4144 ;; This function uses a non-reentrant model
  4145 ;;
  4146                           
  4147                           	psect	text26
  4148   0115AC                     __ptext26:
  4149                           	callstack 0
  4150   0115AC                     _SPI1_Initialize:
  4151                           	callstack 121
  4152   0115AC                     
  4153                           ;mcc_generated_files/spi/src/spi1.c: 73:     SPI1CON1 = 0x40;
  4154   0115AC  0E40               	movlw	64
  4155   0115AE  0100               	movlb	0	; () banked
  4156   0115B0  6F85               	movwf	133,b	;volatile
  4157                           
  4158                           ;mcc_generated_files/spi/src/spi1.c: 75:     SPI1CON2 = 0x0;
  4159   0115B2  0E00               	movlw	0
  4160   0115B4  6F86               	movwf	134,b	;volatile
  4161                           
  4162                           ;mcc_generated_files/spi/src/spi1.c: 77:     SPI1CLK = 0x1;
  4163   0115B6  0E01               	movlw	1
  4164   0115B8  6F8C               	movwf	140,b	;volatile
  4165                           
  4166                           ;mcc_generated_files/spi/src/spi1.c: 79:     SPI1BAUD = 0xEF;
  4167   0115BA  0EEF               	movlw	239
  4168   0115BC  6F89               	movwf	137,b	;volatile
  4169   0115BE                     
  4170                           ; BSR set to: 0
  4171                           ;mcc_generated_files/spi/src/spi1.c: 80:     TRISCbits.TRISC6 = 0;
  4172   0115BE  9CC8               	bcf	200,6,c	;volatile
  4173                           
  4174                           ;mcc_generated_files/spi/src/spi1.c: 82:     SPI1CON0 = 0x2;
  4175   0115C0  0E02               	movlw	2
  4176   0115C2  6F84               	movwf	132,b	;volatile
  4177   0115C4                     
  4178                           ; BSR set to: 0
  4179   0115C4  0012               	return		;funcret
  4180   0115C6                     __end_of_SPI1_Initialize:
  4181                           	callstack 0
  4182                           
  4183 ;; *************** function _PIN_MANAGER_Initialize *****************
  4184 ;; Defined at:
  4185 ;;		line 38 in file "mcc_generated_files/system/src/pins.c"
  4186 ;; Parameters:    Size  Location     Type
  4187 ;;		None
  4188 ;; Auto vars:     Size  Location     Type
  4189 ;;		None
  4190 ;; Return value:  Size  Location     Type
  4191 ;;                  1    wreg      void 
  4192 ;; Registers used:
  4193 ;;		wreg, status,2
  4194 ;; Tracked objects:
  4195 ;;		On entry : 0/0
  4196 ;;		On exit  : 0/0
  4197 ;;		Unchanged: 0/0
  4198 ;; Data sizes:     COMRAM   BANK5   BANK6   BANK7   BANK8   BANK9  BANK10  BANK11  BANK12  BANK13  BANK14  BANK15  BANK1
      +6  BANK17  BANK18  BANK19  BANK20  BANK21  BANK22  BANK23  BANK24  BANK25  BANK26  BANK27  BANK28  BANK29  BANK30  BANK3
      +1  BANK32  BANK33  BANK34  BANK35  BANK36
  4199 ;;      Params:         0       0       0       0       0       0       0       0       0       0       0       0       
      +0       0       0       0       0       0       0       0       0       0       0       0       0       0       0       
      +0       0       0       0       0       0
  4200 ;;      Locals:         0       0       0       0       0       0       0       0       0       0       0       0       
      +0       0       0       0       0       0       0       0       0       0       0       0       0       0       0       
      +0       0       0       0       0       0
  4201 ;;      Temps:          0       0       0       0       0       0       0       0       0       0       0       0       
      +0       0       0       0       0       0       0       0       0       0       0       0       0       0       0       
      +0       0       0       0       0       0
  4202 ;;      Totals:         0       0       0       0       0       0       0       0       0       0       0       0       
      +0       0       0       0       0       0       0       0       0       0       0       0       0       0       0       
      +0       0       0       0       0       0
  4203 ;;Total ram usage:        0 bytes
  4204 ;; Hardware stack levels used: 1
  4205 ;; Hardware stack levels required when called: 4
  4206 ;; This function calls:
  4207 ;;		Nothing
  4208 ;; This function is called by:
  4209 ;;		_SYSTEM_Initialize
  4210 ;; This function uses a non-reentrant model
  4211 ;;
  4212                           
  4213                           	psect	text27
  4214   010848                     __ptext27:
  4215                           	callstack 0
  4216   010848                     _PIN_MANAGER_Initialize:
  4217                           	callstack 121
  4218   010848                     
  4219                           ;mcc_generated_files/system/src/pins.c: 43:     LATA = 0x0;
  4220   010848  0E00               	movlw	0
  4221   01084A  6EBE               	movwf	190,c	;volatile
  4222                           
  4223                           ;mcc_generated_files/system/src/pins.c: 44:     LATB = 0x6;
  4224   01084C  0E06               	movlw	6
  4225   01084E  6EBF               	movwf	191,c	;volatile
  4226                           
  4227                           ;mcc_generated_files/system/src/pins.c: 45:     LATC = 0x0;
  4228   010850  0E00               	movlw	0
  4229   010852  6EC0               	movwf	192,c	;volatile
  4230                           
  4231                           ;mcc_generated_files/system/src/pins.c: 46:     LATD = 0x0;
  4232   010854  0E00               	movlw	0
  4233   010856  6EC1               	movwf	193,c	;volatile
  4234                           
  4235                           ;mcc_generated_files/system/src/pins.c: 47:     LATE = 0x0;
  4236   010858  0E00               	movlw	0
  4237   01085A  6EC2               	movwf	194,c	;volatile
  4238                           
  4239                           ;mcc_generated_files/system/src/pins.c: 48:     LATF = 0x0;
  4240   01085C  0E00               	movlw	0
  4241   01085E  6EC3               	movwf	195,c	;volatile
  4242   010860                     
  4243                           ;mcc_generated_files/system/src/pins.c: 53:     TRISA = 0xFF;
  4244   010860  68C6               	setf	198,c	;volatile
  4245                           
  4246                           ;mcc_generated_files/system/src/pins.c: 54:     TRISB = 0xF1;
  4247   010862  0EF1               	movlw	241
  4248   010864  6EC7               	movwf	199,c	;volatile
  4249                           
  4250                           ;mcc_generated_files/system/src/pins.c: 55:     TRISC = 0x6F;
  4251   010866  0E6F               	movlw	111
  4252   010868  6EC8               	movwf	200,c	;volatile
  4253                           
  4254                           ;mcc_generated_files/system/src/pins.c: 56:     TRISD = 0xBF;
  4255   01086A  0EBF               	movlw	191
  4256   01086C  6EC9               	movwf	201,c	;volatile
  4257                           
  4258                           ;mcc_generated_files/system/src/pins.c: 57:     TRISE = 0xF;
  4259   01086E  0E0F               	movlw	15
  4260   010870  6ECA               	movwf	202,c	;volatile
  4261                           
  4262                           ;mcc_generated_files/system/src/pins.c: 58:     TRISF = 0xF6;
  4263   010872  0EF6               	movlw	246
  4264   010874  6ECB               	movwf	203,c	;volatile
  4265   010876                     
  4266                           ;mcc_generated_files/system/src/pins.c: 63:     ANSELA = 0xFF;
  4267   010876  0104               	movlb	4	; () banked
  4268   010878  6900               	setf	0,b	;volatile
  4269                           
  4270                           ;mcc_generated_files/system/src/pins.c: 64:     ANSELB = 0xD1;
  4271   01087A  0ED1               	movlw	209
  4272   01087C  6F08               	movwf	8,b	;volatile
  4273                           
  4274                           ;mcc_generated_files/system/src/pins.c: 65:     ANSELC = 0x2F;
  4275   01087E  0E2F               	movlw	47
  4276   010880  6F10               	movwf	16,b	;volatile
  4277                           
  4278                           ;mcc_generated_files/system/src/pins.c: 66:     ANSELD = 0xBF;
  4279   010882  0EBF               	movlw	191
  4280   010884  6F18               	movwf	24,b	;volatile
  4281                           
  4282                           ;mcc_generated_files/system/src/pins.c: 67:     ANSELE = 0x3;
  4283   010886  0E03               	movlw	3
  4284   010888  6F20               	movwf	32,b	;volatile
  4285                           
  4286                           ;mcc_generated_files/system/src/pins.c: 68:     ANSELF = 0xF4;
  4287   01088A  0EF4               	movlw	244
  4288   01088C  6F28               	movwf	40,b	;volatile
  4289                           
  4290                           ;mcc_generated_files/system/src/pins.c: 73:     WPUA = 0x0;
  4291   01088E  0E00               	movlw	0
  4292   010890  6F01               	movwf	1,b	;volatile
  4293                           
  4294                           ;mcc_generated_files/system/src/pins.c: 74:     WPUB = 0x0;
  4295   010892  0E00               	movlw	0
  4296   010894  6F09               	movwf	9,b	;volatile
  4297                           
  4298                           ;mcc_generated_files/system/src/pins.c: 75:     WPUC = 0x0;
  4299   010896  0E00               	movlw	0
  4300   010898  6F11               	movwf	17,b	;volatile
  4301                           
  4302                           ;mcc_generated_files/system/src/pins.c: 76:     WPUD = 0x0;
  4303   01089A  0E00               	movlw	0
  4304   01089C  6F19               	movwf	25,b	;volatile
  4305                           
  4306                           ;mcc_generated_files/system/src/pins.c: 77:     WPUE = 0x0;
  4307   01089E  0E00               	movlw	0
  4308   0108A0  6F21               	movwf	33,b	;volatile
  4309                           
  4310                           ;mcc_generated_files/system/src/pins.c: 78:     WPUF = 0x0;
  4311   0108A2  0E00               	movlw	0
  4312   0108A4  6F29               	movwf	41,b	;volatile
  4313                           
  4314                           ;mcc_generated_files/system/src/pins.c: 83:     RB1I2C = 0x0;
  4315   0108A6  0E00               	movlw	0
  4316   0108A8  0102               	movlb	2	; () banked
  4317   0108AA  6F89               	movwf	137,b	;volatile
  4318                           
  4319                           ;mcc_generated_files/system/src/pins.c: 84:     RB2I2C = 0x0;
  4320   0108AC  0E00               	movlw	0
  4321   0108AE  6F88               	movwf	136,b	;volatile
  4322                           
  4323                           ;mcc_generated_files/system/src/pins.c: 85:     RC3I2C = 0x0;
  4324   0108B0  0E00               	movlw	0
  4325   0108B2  6F87               	movwf	135,b	;volatile
  4326                           
  4327                           ;mcc_generated_files/system/src/pins.c: 86:     RC4I2C = 0x0;
  4328   0108B4  0E00               	movlw	0
  4329   0108B6  6F86               	movwf	134,b	;volatile
  4330                           
  4331                           ;mcc_generated_files/system/src/pins.c: 91:     ODCONA = 0x0;
  4332   0108B8  0E00               	movlw	0
  4333   0108BA  0104               	movlb	4	; () banked
  4334   0108BC  6F02               	movwf	2,b	;volatile
  4335                           
  4336                           ;mcc_generated_files/system/src/pins.c: 92:     ODCONB = 0x6;
  4337   0108BE  0E06               	movlw	6
  4338   0108C0  6F0A               	movwf	10,b	;volatile
  4339                           
  4340                           ;mcc_generated_files/system/src/pins.c: 93:     ODCONC = 0x0;
  4341   0108C2  0E00               	movlw	0
  4342   0108C4  6F12               	movwf	18,b	;volatile
  4343                           
  4344                           ;mcc_generated_files/system/src/pins.c: 94:     ODCOND = 0x0;
  4345   0108C6  0E00               	movlw	0
  4346   0108C8  6F1A               	movwf	26,b	;volatile
  4347                           
  4348                           ;mcc_generated_files/system/src/pins.c: 95:     ODCONE = 0x0;
  4349   0108CA  0E00               	movlw	0
  4350   0108CC  6F22               	movwf	34,b	;volatile
  4351                           
  4352                           ;mcc_generated_files/system/src/pins.c: 96:     ODCONF = 0x0;
  4353   0108CE  0E00               	movlw	0
  4354   0108D0  6F2A               	movwf	42,b	;volatile
  4355   0108D2                     
  4356                           ; BSR set to: 4
  4357                           ;mcc_generated_files/system/src/pins.c: 101:     SLRCONA = 0xFF;
  4358   0108D2  6903               	setf	3,b	;volatile
  4359   0108D4                     
  4360                           ; BSR set to: 4
  4361                           ;mcc_generated_files/system/src/pins.c: 102:     SLRCONB = 0xFF;
  4362   0108D4  690B               	setf	11,b	;volatile
  4363   0108D6                     
  4364                           ; BSR set to: 4
  4365                           ;mcc_generated_files/system/src/pins.c: 103:     SLRCONC = 0xFF;
  4366   0108D6  6913               	setf	19,b	;volatile
  4367   0108D8                     
  4368                           ; BSR set to: 4
  4369                           ;mcc_generated_files/system/src/pins.c: 104:     SLRCOND = 0xFF;
  4370   0108D8  691B               	setf	27,b	;volatile
  4371                           
  4372                           ;mcc_generated_files/system/src/pins.c: 105:     SLRCONE = 0x7;
  4373   0108DA  0E07               	movlw	7
  4374   0108DC  6F23               	movwf	35,b	;volatile
  4375   0108DE                     
  4376                           ; BSR set to: 4
  4377                           ;mcc_generated_files/system/src/pins.c: 106:     SLRCONF = 0xFF;
  4378   0108DE  692B               	setf	43,b	;volatile
  4379   0108E0                     
  4380                           ; BSR set to: 4
  4381                           ;mcc_generated_files/system/src/pins.c: 111:     INLVLA = 0xFF;
  4382   0108E0  6904               	setf	4,b	;volatile
  4383   0108E2                     
  4384                           ; BSR set to: 4
  4385                           ;mcc_generated_files/system/src/pins.c: 112:     INLVLB = 0xFF;
  4386   0108E2  690C               	setf	12,b	;volatile
  4387   0108E4                     
  4388                           ; BSR set to: 4
  4389                           ;mcc_generated_files/system/src/pins.c: 113:     INLVLC = 0xFF;
  4390   0108E4  6914               	setf	20,b	;volatile
  4391   0108E6                     
  4392                           ; BSR set to: 4
  4393                           ;mcc_generated_files/system/src/pins.c: 114:     INLVLD = 0xFF;
  4394   0108E6  691C               	setf	28,b	;volatile
  4395                           
  4396                           ;mcc_generated_files/system/src/pins.c: 115:     INLVLE = 0xF;
  4397   0108E8  0E0F               	movlw	15
  4398   0108EA  6F24               	movwf	36,b	;volatile
  4399   0108EC                     
  4400                           ; BSR set to: 4
  4401                           ;mcc_generated_files/system/src/pins.c: 116:     INLVLF = 0xFF;
  4402   0108EC  692C               	setf	44,b	;volatile
  4403                           
  4404                           ;mcc_generated_files/system/src/pins.c: 120:     U1RXPPS = 0x29;
  4405   0108EE  0E29               	movlw	41
  4406   0108F0  0102               	movlb	2	; () banked
  4407   0108F2  6F72               	movwf	114,b	;volatile
  4408                           
  4409                           ;mcc_generated_files/system/src/pins.c: 121:     INT2PPS = 0xD;
  4410   0108F4  0E0D               	movlw	13
  4411   0108F6  6F40               	movwf	64,b	;volatile
  4412                           
  4413                           ;mcc_generated_files/system/src/pins.c: 122:     RF0PPS = 0x20;
  4414   0108F8  0E20               	movlw	32
  4415   0108FA  6F29               	movwf	41,b	;volatile
  4416                           
  4417                           ;mcc_generated_files/system/src/pins.c: 123:     RC4PPS = 0x32;
  4418   0108FC  0E32               	movlw	50
  4419   0108FE  6F15               	movwf	21,b	;volatile
  4420                           
  4421                           ;mcc_generated_files/system/src/pins.c: 124:     SPI1SCKPPS = 0x16;
  4422   010900  0E16               	movlw	22
  4423   010902  6F6A               	movwf	106,b	;volatile
  4424                           
  4425                           ;mcc_generated_files/system/src/pins.c: 125:     RC6PPS = 0x31;
  4426   010904  0E31               	movlw	49
  4427   010906  6F17               	movwf	23,b	;volatile
  4428                           
  4429                           ;mcc_generated_files/system/src/pins.c: 126:     I2C1SCLPPS = 0x9;
  4430   010908  0E09               	movlw	9
  4431   01090A  6F71               	movwf	113,b	;volatile
  4432                           
  4433                           ;mcc_generated_files/system/src/pins.c: 127:     RB1PPS = 0x37;
  4434   01090C  0E37               	movlw	55
  4435   01090E  6F0A               	movwf	10,b	;volatile
  4436                           
  4437                           ;mcc_generated_files/system/src/pins.c: 128:     I2C1SDAPPS = 0xA;
  4438   010910  0E0A               	movlw	10
  4439   010912  6F70               	movwf	112,b	;volatile
  4440                           
  4441                           ;mcc_generated_files/system/src/pins.c: 129:     RB2PPS = 0x38;
  4442   010914  0E38               	movlw	56
  4443   010916  6F0B               	movwf	11,b	;volatile
  4444                           
  4445                           ;mcc_generated_files/system/src/pins.c: 134:     IOCAP = 0x0;
  4446   010918  0E00               	movlw	0
  4447   01091A  0104               	movlb	4	; () banked
  4448   01091C  6F05               	movwf	5,b	;volatile
  4449                           
  4450                           ;mcc_generated_files/system/src/pins.c: 135:     IOCAN = 0x0;
  4451   01091E  0E00               	movlw	0
  4452   010920  6F06               	movwf	6,b	;volatile
  4453                           
  4454                           ;mcc_generated_files/system/src/pins.c: 136:     IOCAF = 0x0;
  4455   010922  0E00               	movlw	0
  4456   010924  6F07               	movwf	7,b	;volatile
  4457                           
  4458                           ;mcc_generated_files/system/src/pins.c: 137:     IOCBP = 0x0;
  4459   010926  0E00               	movlw	0
  4460   010928  6F0D               	movwf	13,b	;volatile
  4461                           
  4462                           ;mcc_generated_files/system/src/pins.c: 138:     IOCBN = 0x0;
  4463   01092A  0E00               	movlw	0
  4464   01092C  6F0E               	movwf	14,b	;volatile
  4465                           
  4466                           ;mcc_generated_files/system/src/pins.c: 139:     IOCBF = 0x0;
  4467   01092E  0E00               	movlw	0
  4468   010930  6F0F               	movwf	15,b	;volatile
  4469                           
  4470                           ;mcc_generated_files/system/src/pins.c: 140:     IOCCP = 0x0;
  4471   010932  0E00               	movlw	0
  4472   010934  6F15               	movwf	21,b	;volatile
  4473                           
  4474                           ;mcc_generated_files/system/src/pins.c: 141:     IOCCN = 0x0;
  4475   010936  0E00               	movlw	0
  4476   010938  6F16               	movwf	22,b	;volatile
  4477                           
  4478                           ;mcc_generated_files/system/src/pins.c: 142:     IOCCF = 0x0;
  4479   01093A  0E00               	movlw	0
  4480   01093C  6F17               	movwf	23,b	;volatile
  4481                           
  4482                           ;mcc_generated_files/system/src/pins.c: 143:     IOCEP = 0x0;
  4483   01093E  0E00               	movlw	0
  4484   010940  6F25               	movwf	37,b	;volatile
  4485                           
  4486                           ;mcc_generated_files/system/src/pins.c: 144:     IOCEN = 0x0;
  4487   010942  0E00               	movlw	0
  4488   010944  6F26               	movwf	38,b	;volatile
  4489                           
  4490                           ;mcc_generated_files/system/src/pins.c: 145:     IOCEF = 0x0;
  4491   010946  0E00               	movlw	0
  4492   010948  6F27               	movwf	39,b	;volatile
  4493   01094A                     
  4494                           ; BSR set to: 4
  4495   01094A  0012               	return		;funcret
  4496   01094C                     __end_of_PIN_MANAGER_Initialize:
  4497                           	callstack 0
  4498                           
  4499 ;; *************** function _INTERRUPT_Initialize *****************
  4500 ;; Defined at:
  4501 ;;		line 42 in file "mcc_generated_files/system/src/interrupt.c"
  4502 ;; Parameters:    Size  Location     Type
  4503 ;;		None
  4504 ;; Auto vars:     Size  Location     Type
  4505 ;;		None
  4506 ;; Return value:  Size  Location     Type
  4507 ;;                  1    wreg      void 
  4508 ;; Registers used:
  4509 ;;		wreg, status,2, status,0, cstack
  4510 ;; Tracked objects:
  4511 ;;		On entry : 0/0
  4512 ;;		On exit  : 0/0
  4513 ;;		Unchanged: 0/0
  4514 ;; Data sizes:     COMRAM   BANK5   BANK6   BANK7   BANK8   BANK9  BANK10  BANK11  BANK12  BANK13  BANK14  BANK15  BANK1
      +6  BANK17  BANK18  BANK19  BANK20  BANK21  BANK22  BANK23  BANK24  BANK25  BANK26  BANK27  BANK28  BANK29  BANK30  BANK3
      +1  BANK32  BANK33  BANK34  BANK35  BANK36
  4515 ;;      Params:         0       0       0       0       0       0       0       0       0       0       0       0       
      +0       0       0       0       0       0       0       0       0       0       0       0       0       0       0       
      +0       0       0       0       0       0
  4516 ;;      Locals:         0       0       0       0       0       0       0       0       0       0       0       0       
      +0       0       0       0       0       0       0       0       0       0       0       0       0       0       0       
      +0       0       0       0       0       0
  4517 ;;      Temps:          0       0       0       0       0       0       0       0       0       0       0       0       
      +0       0       0       0       0       0       0       0       0       0       0       0       0       0       0       
      +0       0       0       0       0       0
  4518 ;;      Totals:         0       0       0       0       0       0       0       0       0       0       0       0       
      +0       0       0       0       0       0       0       0       0       0       0       0       0       0       0       
      +0       0       0       0       0       0
  4519 ;;Total ram usage:        0 bytes
  4520 ;; Hardware stack levels used: 1
  4521 ;; Hardware stack levels required when called: 5
  4522 ;; This function calls:
  4523 ;;		_INT0_SetInterruptHandler
  4524 ;;		_INT1_SetInterruptHandler
  4525 ;;		_INT2_SetInterruptHandler
  4526 ;; This function is called by:
  4527 ;;		_SYSTEM_Initialize
  4528 ;; This function uses a non-reentrant model
  4529 ;;
  4530                           
  4531                           	psect	text28
  4532   01122C                     __ptext28:
  4533                           	callstack 0
  4534   01122C                     _INTERRUPT_Initialize:
  4535                           	callstack 120
  4536   01122C                     
  4537                           ;mcc_generated_files/system/src/interrupt.c: 45:     INTCON0bits.IPEN = 0;
  4538   01122C  9AD6               	bcf	214,5,c	;volatile
  4539                           
  4540                           ;mcc_generated_files/system/src/interrupt.c: 49:     (PIR1bits.INT0IF = 0);
  4541   01122E  90AF               	bcf	175,0,c	;volatile
  4542                           
  4543                           ;mcc_generated_files/system/src/interrupt.c: 50:     (INTCON0bits.INT0EDG = 1);
  4544   011230  80D6               	bsf	214,0,c	;volatile
  4545   011232                     
  4546                           ;mcc_generated_files/system/src/interrupt.c: 52:     INT0_SetInterruptHandler(INT0_Defau
      +                          ltInterruptHandler);
  4547   011232  0E00               	movlw	0
  4548   011234  6E07               	movwf	INT0_SetInterruptHandler@InterruptHandler^(0+1280),c
  4549   011236  0E00               	movlw	0
  4550   011238  6E08               	movwf	(INT0_SetInterruptHandler@InterruptHandler+1)^(0+1280),c
  4551   01123A  0E00               	movlw	0
  4552   01123C  6E09               	movwf	(INT0_SetInterruptHandler@InterruptHandler+2)^(0+1280),c
  4553   01123E  EC6E  F08B         	call	_INT0_SetInterruptHandler	;wreg free
  4554   011242                     
  4555                           ;mcc_generated_files/system/src/interrupt.c: 57:     (PIR6bits.INT1IF = 0);
  4556   011242  90B4               	bcf	180,0,c	;volatile
  4557   011244                     
  4558                           ;mcc_generated_files/system/src/interrupt.c: 58:     (INTCON0bits.INT1EDG = 1);
  4559   011244  82D6               	bsf	214,1,c	;volatile
  4560                           
  4561                           ;mcc_generated_files/system/src/interrupt.c: 60:     INT1_SetInterruptHandler(INT1_Defau
      +                          ltInterruptHandler);
  4562   011246  0E00               	movlw	0
  4563   011248  6E07               	movwf	INT1_SetInterruptHandler@InterruptHandler^(0+1280),c
  4564   01124A  0E00               	movlw	0
  4565   01124C  6E08               	movwf	(INT1_SetInterruptHandler@InterruptHandler+1)^(0+1280),c
  4566   01124E  0E00               	movlw	0
  4567   011250  6E09               	movwf	(INT1_SetInterruptHandler@InterruptHandler+2)^(0+1280),c
  4568   011252  EC67  F08B         	call	_INT1_SetInterruptHandler	;wreg free
  4569   011256                     
  4570                           ;mcc_generated_files/system/src/interrupt.c: 65:     (PIR10bits.INT2IF = 0);
  4571   011256  90B8               	bcf	184,0,c	;volatile
  4572   011258                     
  4573                           ;mcc_generated_files/system/src/interrupt.c: 66:     (INTCON0bits.INT2EDG = 1);
  4574   011258  84D6               	bsf	214,2,c	;volatile
  4575                           
  4576                           ;mcc_generated_files/system/src/interrupt.c: 68:     INT2_SetInterruptHandler(INT2_Defau
      +                          ltInterruptHandler);
  4577   01125A  0E46               	movlw	low _INT2_DefaultInterruptHandler
  4578   01125C  6E07               	movwf	INT2_SetInterruptHandler@InterruptHandler^(0+1280),c
  4579   01125E  0E17               	movlw	high _INT2_DefaultInterruptHandler
  4580   011260  6E08               	movwf	(INT2_SetInterruptHandler@InterruptHandler+1)^(0+1280),c
  4581   011262  0E01               	movlw	low (_INT2_DefaultInterruptHandler shr (0+16))
  4582   011264  6E09               	movwf	(INT2_SetInterruptHandler@InterruptHandler+2)^(0+1280),c
  4583   011266  EC60  F08B         	call	_INT2_SetInterruptHandler	;wreg free
  4584   01126A                     
  4585                           ;mcc_generated_files/system/src/interrupt.c: 69:     (PIE10bits.INT2IE = 1);
  4586   01126A  80A8               	bsf	168,0,c	;volatile
  4587   01126C  0012               	return		;funcret
  4588   01126E                     __end_of_INTERRUPT_Initialize:
  4589                           	callstack 0
  4590                           
  4591 ;; *************** function _INT2_SetInterruptHandler *****************
  4592 ;; Defined at:
  4593 ;;		line 196 in file "mcc_generated_files/system/src/interrupt.c"
  4594 ;; Parameters:    Size  Location     Type
  4595 ;;  InterruptHan    3    6[COMRAM] PTR FTN()void 
  4596 ;;		 -> INT2_DefaultInterruptHandler(1), 
  4597 ;; Auto vars:     Size  Location     Type
  4598 ;;		None
  4599 ;; Return value:  Size  Location     Type
  4600 ;;                  1    wreg      void 
  4601 ;; Registers used:
  4602 ;;		wreg, status,2, status,0
  4603 ;; Tracked objects:
  4604 ;;		On entry : 0/0
  4605 ;;		On exit  : 0/0
  4606 ;;		Unchanged: 0/0
  4607 ;; Data sizes:     COMRAM   BANK5   BANK6   BANK7   BANK8   BANK9  BANK10  BANK11  BANK12  BANK13  BANK14  BANK15  BANK1
      +6  BANK17  BANK18  BANK19  BANK20  BANK21  BANK22  BANK23  BANK24  BANK25  BANK26  BANK27  BANK28  BANK29  BANK30  BANK3
      +1  BANK32  BANK33  BANK34  BANK35  BANK36
  4608 ;;      Params:         3       0       0       0       0       0       0       0       0       0       0       0       
      +0       0       0       0       0       0       0       0       0       0       0       0       0       0       0       
      +0       0       0       0       0       0
  4609 ;;      Locals:         0       0       0       0       0       0       0       0       0       0       0       0       
      +0       0       0       0       0       0       0       0       0       0       0       0       0       0       0       
      +0       0       0       0       0       0
  4610 ;;      Temps:          0       0       0       0       0       0       0       0       0       0       0       0       
      +0       0       0       0       0       0       0       0       0       0       0       0       0       0       0       
      +0       0       0       0       0       0
  4611 ;;      Totals:         3       0       0       0       0       0       0       0       0       0       0       0       
      +0       0       0       0       0       0       0       0       0       0       0       0       0       0       0       
      +0       0       0       0       0       0
  4612 ;;Total ram usage:        3 bytes
  4613 ;; Hardware stack levels used: 1
  4614 ;; Hardware stack levels required when called: 4
  4615 ;; This function calls:
  4616 ;;		Nothing
  4617 ;; This function is called by:
  4618 ;;		_INTERRUPT_Initialize
  4619 ;; This function uses a non-reentrant model
  4620 ;;
  4621                           
  4622                           	psect	text29
  4623   0116C0                     __ptext29:
  4624                           	callstack 0
  4625   0116C0                     _INT2_SetInterruptHandler:
  4626                           	callstack 120
  4627   0116C0                     
  4628                           ;mcc_generated_files/system/src/interrupt.c: 197:     INT2_InterruptHandler = InterruptH
      +                          andler;
  4629   0116C0  C507  F5AF         	movff	INT2_SetInterruptHandler@InterruptHandler,_INT2_InterruptHandler
  4630   0116C4  C508  F5B0         	movff	INT2_SetInterruptHandler@InterruptHandler+1,_INT2_InterruptHandler+1
  4631   0116C8  C509  F5B1         	movff	INT2_SetInterruptHandler@InterruptHandler+2,_INT2_InterruptHandler+2
  4632   0116CC  0012               	return		;funcret
  4633   0116CE                     __end_of_INT2_SetInterruptHandler:
  4634                           	callstack 0
  4635                           
  4636 ;; *************** function _INT1_SetInterruptHandler *****************
  4637 ;; Defined at:
  4638 ;;		line 170 in file "mcc_generated_files/system/src/interrupt.c"
  4639 ;; Parameters:    Size  Location     Type
  4640 ;;  InterruptHan    3    6[COMRAM] PTR FTN()void 
  4641 ;;		 -> INT1_DefaultInterruptHandler(1), 
  4642 ;; Auto vars:     Size  Location     Type
  4643 ;;		None
  4644 ;; Return value:  Size  Location     Type
  4645 ;;                  1    wreg      void 
  4646 ;; Registers used:
  4647 ;;		wreg, status,2, status,0
  4648 ;; Tracked objects:
  4649 ;;		On entry : 0/0
  4650 ;;		On exit  : 0/0
  4651 ;;		Unchanged: 0/0
  4652 ;; Data sizes:     COMRAM   BANK5   BANK6   BANK7   BANK8   BANK9  BANK10  BANK11  BANK12  BANK13  BANK14  BANK15  BANK1
      +6  BANK17  BANK18  BANK19  BANK20  BANK21  BANK22  BANK23  BANK24  BANK25  BANK26  BANK27  BANK28  BANK29  BANK30  BANK3
      +1  BANK32  BANK33  BANK34  BANK35  BANK36
  4653 ;;      Params:         3       0       0       0       0       0       0       0       0       0       0       0       
      +0       0       0       0       0       0       0       0       0       0       0       0       0       0       0       
      +0       0       0       0       0       0
  4654 ;;      Locals:         0       0       0       0       0       0       0       0       0       0       0       0       
      +0       0       0       0       0       0       0       0       0       0       0       0       0       0       0       
      +0       0       0       0       0       0
  4655 ;;      Temps:          0       0       0       0       0       0       0       0       0       0       0       0       
      +0       0       0       0       0       0       0       0       0       0       0       0       0       0       0       
      +0       0       0       0       0       0
  4656 ;;      Totals:         3       0       0       0       0       0       0       0       0       0       0       0       
      +0       0       0       0       0       0       0       0       0       0       0       0       0       0       0       
      +0       0       0       0       0       0
  4657 ;;Total ram usage:        3 bytes
  4658 ;; Hardware stack levels used: 1
  4659 ;; Hardware stack levels required when called: 4
  4660 ;; This function calls:
  4661 ;;		Nothing
  4662 ;; This function is called by:
  4663 ;;		_INTERRUPT_Initialize
  4664 ;; This function uses a non-reentrant model
  4665 ;;
  4666                           
  4667                           	psect	text30
  4668   0116CE                     __ptext30:
  4669                           	callstack 0
  4670   0116CE                     _INT1_SetInterruptHandler:
  4671                           	callstack 120
  4672   0116CE                     
  4673                           ;mcc_generated_files/system/src/interrupt.c: 171:     INT1_InterruptHandler = InterruptH
      +                          andler;
  4674   0116CE  C507  F5B2         	movff	INT1_SetInterruptHandler@InterruptHandler,_INT1_InterruptHandler
  4675   0116D2  C508  F5B3         	movff	INT1_SetInterruptHandler@InterruptHandler+1,_INT1_InterruptHandler+1
  4676   0116D6  C509  F5B4         	movff	INT1_SetInterruptHandler@InterruptHandler+2,_INT1_InterruptHandler+2
  4677   0116DA  0012               	return		;funcret
  4678   0116DC                     __end_of_INT1_SetInterruptHandler:
  4679                           	callstack 0
  4680                           
  4681 ;; *************** function _INT0_SetInterruptHandler *****************
  4682 ;; Defined at:
  4683 ;;		line 144 in file "mcc_generated_files/system/src/interrupt.c"
  4684 ;; Parameters:    Size  Location     Type
  4685 ;;  InterruptHan    3    6[COMRAM] PTR FTN()void 
  4686 ;;		 -> INT0_DefaultInterruptHandler(1), 
  4687 ;; Auto vars:     Size  Location     Type
  4688 ;;		None
  4689 ;; Return value:  Size  Location     Type
  4690 ;;                  1    wreg      void 
  4691 ;; Registers used:
  4692 ;;		wreg, status,2, status,0
  4693 ;; Tracked objects:
  4694 ;;		On entry : 0/0
  4695 ;;		On exit  : 0/0
  4696 ;;		Unchanged: 0/0
  4697 ;; Data sizes:     COMRAM   BANK5   BANK6   BANK7   BANK8   BANK9  BANK10  BANK11  BANK12  BANK13  BANK14  BANK15  BANK1
      +6  BANK17  BANK18  BANK19  BANK20  BANK21  BANK22  BANK23  BANK24  BANK25  BANK26  BANK27  BANK28  BANK29  BANK30  BANK3
      +1  BANK32  BANK33  BANK34  BANK35  BANK36
  4698 ;;      Params:         3       0       0       0       0       0       0       0       0       0       0       0       
      +0       0       0       0       0       0       0       0       0       0       0       0       0       0       0       
      +0       0       0       0       0       0
  4699 ;;      Locals:         0       0       0       0       0       0       0       0       0       0       0       0       
      +0       0       0       0       0       0       0       0       0       0       0       0       0       0       0       
      +0       0       0       0       0       0
  4700 ;;      Temps:          0       0       0       0       0       0       0       0       0       0       0       0       
      +0       0       0       0       0       0       0       0       0       0       0       0       0       0       0       
      +0       0       0       0       0       0
  4701 ;;      Totals:         3       0       0       0       0       0       0       0       0       0       0       0       
      +0       0       0       0       0       0       0       0       0       0       0       0       0       0       0       
      +0       0       0       0       0       0
  4702 ;;Total ram usage:        3 bytes
  4703 ;; Hardware stack levels used: 1
  4704 ;; Hardware stack levels required when called: 4
  4705 ;; This function calls:
  4706 ;;		Nothing
  4707 ;; This function is called by:
  4708 ;;		_INTERRUPT_Initialize
  4709 ;; This function uses a non-reentrant model
  4710 ;;
  4711                           
  4712                           	psect	text31
  4713   0116DC                     __ptext31:
  4714                           	callstack 0
  4715   0116DC                     _INT0_SetInterruptHandler:
  4716                           	callstack 120
  4717   0116DC                     
  4718                           ;mcc_generated_files/system/src/interrupt.c: 145:     INT0_InterruptHandler = InterruptH
      +                          andler;
  4719   0116DC  C507  F5B5         	movff	INT0_SetInterruptHandler@InterruptHandler,_INT0_InterruptHandler
  4720   0116E0  C508  F5B6         	movff	INT0_SetInterruptHandler@InterruptHandler+1,_INT0_InterruptHandler+1
  4721   0116E4  C509  F5B7         	movff	INT0_SetInterruptHandler@InterruptHandler+2,_INT0_InterruptHandler+2
  4722   0116E8  0012               	return		;funcret
  4723   0116EA                     __end_of_INT0_SetInterruptHandler:
  4724                           	callstack 0
  4725                           
  4726 ;; *************** function _I2C1_Initialize *****************
  4727 ;; Defined at:
  4728 ;;		line 91 in file "mcc_generated_files/i2c_host/src/i2c1.c"
  4729 ;; Parameters:    Size  Location     Type
  4730 ;;		None
  4731 ;; Auto vars:     Size  Location     Type
  4732 ;;		None
  4733 ;; Return value:  Size  Location     Type
  4734 ;;                  1    wreg      void 
  4735 ;; Registers used:
  4736 ;;		wreg, status,2, status,0, cstack
  4737 ;; Tracked objects:
  4738 ;;		On entry : 0/0
  4739 ;;		On exit  : 0/0
  4740 ;;		Unchanged: 0/0
  4741 ;; Data sizes:     COMRAM   BANK5   BANK6   BANK7   BANK8   BANK9  BANK10  BANK11  BANK12  BANK13  BANK14  BANK15  BANK1
      +6  BANK17  BANK18  BANK19  BANK20  BANK21  BANK22  BANK23  BANK24  BANK25  BANK26  BANK27  BANK28  BANK29  BANK30  BANK3
      +1  BANK32  BANK33  BANK34  BANK35  BANK36
  4742 ;;      Params:         0       0       0       0       0       0       0       0       0       0       0       0       
      +0       0       0       0       0       0       0       0       0       0       0       0       0       0       0       
      +0       0       0       0       0       0
  4743 ;;      Locals:         0       0       0       0       0       0       0       0       0       0       0       0       
      +0       0       0       0       0       0       0       0       0       0       0       0       0       0       0       
      +0       0       0       0       0       0
  4744 ;;      Temps:          0       0       0       0       0       0       0       0       0       0       0       0       
      +0       0       0       0       0       0       0       0       0       0       0       0       0       0       0       
      +0       0       0       0       0       0
  4745 ;;      Totals:         0       0       0       0       0       0       0       0       0       0       0       0       
      +0       0       0       0       0       0       0       0       0       0       0       0       0       0       0       
      +0       0       0       0       0       0
  4746 ;;Total ram usage:        0 bytes
  4747 ;; Hardware stack levels used: 1
  4748 ;; Hardware stack levels required when called: 5
  4749 ;; This function calls:
  4750 ;;		_I2C1_CallbackRegister
  4751 ;;		_I2C1_InterruptsEnable
  4752 ;; This function is called by:
  4753 ;;		_SYSTEM_Initialize
  4754 ;; This function uses a non-reentrant model
  4755 ;;
  4756                           
  4757                           	psect	text32
  4758   0110E8                     __ptext32:
  4759                           	callstack 0
  4760   0110E8                     _I2C1_Initialize:
  4761                           	callstack 120
  4762   0110E8                     
  4763                           ;mcc_generated_files/i2c_host/src/i2c1.c: 94:     I2C1CON0 = 0x4;
  4764   0110E8  0E04               	movlw	4
  4765   0110EA  0102               	movlb	2	; () banked
  4766   0110EC  6F94               	movwf	148,b	;volatile
  4767                           
  4768                           ;mcc_generated_files/i2c_host/src/i2c1.c: 96:     I2C1CON1 = 0x80;
  4769   0110EE  0E80               	movlw	128
  4770   0110F0  6F95               	movwf	149,b	;volatile
  4771                           
  4772                           ;mcc_generated_files/i2c_host/src/i2c1.c: 98:     I2C1CON2 = 0x8;
  4773   0110F2  0E08               	movlw	8
  4774   0110F4  6F96               	movwf	150,b	;volatile
  4775                           
  4776                           ;mcc_generated_files/i2c_host/src/i2c1.c: 100:     I2C1CLK = 0x3;
  4777   0110F6  0E03               	movlw	3
  4778   0110F8  6F9C               	movwf	156,b	;volatile
  4779                           
  4780                           ;mcc_generated_files/i2c_host/src/i2c1.c: 102:     I2C1PIR = 0x0;
  4781   0110FA  0E00               	movlw	0
  4782   0110FC  6F9A               	movwf	154,b	;volatile
  4783                           
  4784                           ;mcc_generated_files/i2c_host/src/i2c1.c: 104:     I2C1PIE = 0x0;
  4785   0110FE  0E00               	movlw	0
  4786   011100  6F9B               	movwf	155,b	;volatile
  4787                           
  4788                           ;mcc_generated_files/i2c_host/src/i2c1.c: 106:     I2C1ERR = 0x0;
  4789   011102  0E00               	movlw	0
  4790   011104  6F97               	movwf	151,b	;volatile
  4791                           
  4792                           ;mcc_generated_files/i2c_host/src/i2c1.c: 108:     I2C1CNT = 0x0;
  4793   011106  0E00               	movlw	0
  4794   011108  6F8D               	movwf	141,b	;volatile
  4795                           
  4796                           ;mcc_generated_files/i2c_host/src/i2c1.c: 110:     RB1I2C = 0x51;
  4797   01110A  0E51               	movlw	81
  4798   01110C  6F89               	movwf	137,b	;volatile
  4799                           
  4800                           ;mcc_generated_files/i2c_host/src/i2c1.c: 112:     RB2I2C = 0x51;
  4801   01110E  0E51               	movlw	81
  4802   011110  6F88               	movwf	136,b	;volatile
  4803   011112                     
  4804                           ; BSR set to: 2
  4805                           ;mcc_generated_files/i2c_host/src/i2c1.c: 113:     I2C1_InterruptsEnable();
  4806   011112  EC3B  F08B         	call	_I2C1_InterruptsEnable	;wreg free
  4807   011116                     
  4808                           ;mcc_generated_files/i2c_host/src/i2c1.c: 117:     I2C1PIEbits.SCIE = 0;
  4809   011116  0102               	movlb	2	; () banked
  4810   011118  919B               	bcf	155,0,b	;volatile
  4811   01111A                     
  4812                           ; BSR set to: 2
  4813                           ;mcc_generated_files/i2c_host/src/i2c1.c: 118:     I2C1PIEbits.PCIE = 0;
  4814   01111A  959B               	bcf	155,2,b	;volatile
  4815   01111C                     
  4816                           ; BSR set to: 2
  4817                           ;mcc_generated_files/i2c_host/src/i2c1.c: 119:     I2C1CON0bits.EN = 1;
  4818   01111C  8F94               	bsf	148,7,b	;volatile
  4819   01111E                     
  4820                           ; BSR set to: 2
  4821                           ;mcc_generated_files/i2c_host/src/i2c1.c: 120:     _delay((unsigned long)((1)*(48000000/
      +                          4000000.0)));
  4822   01111E  0E04               	movlw	4
  4823   011120                     u3157:
  4824   011120  2EE8               	decfsz	wreg,f,c
  4825   011122  D7FE               	bra	u3157
  4826   011124                     
  4827                           ;mcc_generated_files/i2c_host/src/i2c1.c: 121:     __nop();
  4828   011124  F000               	nop	
  4829   011126                     
  4830                           ;mcc_generated_files/i2c_host/src/i2c1.c: 122:     __nop();
  4831   011126  F000               	nop	
  4832   011128                     
  4833                           ;mcc_generated_files/i2c_host/src/i2c1.c: 123:     __nop();
  4834   011128  F000               	nop	
  4835   01112A                     
  4836                           ;mcc_generated_files/i2c_host/src/i2c1.c: 124:     __nop();
  4837   01112A  F000               	nop	
  4838   01112C                     
  4839                           ;mcc_generated_files/i2c_host/src/i2c1.c: 125:     __nop();
  4840   01112C  F000               	nop	
  4841   01112E                     
  4842                           ;mcc_generated_files/i2c_host/src/i2c1.c: 126:     __nop();
  4843   01112E  F000               	nop	
  4844   011130                     
  4845                           ;mcc_generated_files/i2c_host/src/i2c1.c: 127:     I2C1PIRbits.SCIF = 0;
  4846   011130  0102               	movlb	2	; () banked
  4847   011132  919A               	bcf	154,0,b	;volatile
  4848   011134                     
  4849                           ; BSR set to: 2
  4850                           ;mcc_generated_files/i2c_host/src/i2c1.c: 128:     I2C1PIRbits.PCIF = 0;
  4851   011134  959A               	bcf	154,2,b	;volatile
  4852   011136                     
  4853                           ; BSR set to: 2
  4854                           ;mcc_generated_files/i2c_host/src/i2c1.c: 129:     I2C1PIEbits.PCIE = 1;
  4855   011136  859B               	bsf	155,2,b	;volatile
  4856   011138                     
  4857                           ; BSR set to: 2
  4858                           ;mcc_generated_files/i2c_host/src/i2c1.c: 130:     I2C1_CallbackRegister(I2C1_DefaultCal
      +                          lback);
  4859   011138  0E48               	movlw	low _I2C1_DefaultCallback
  4860   01113A  6E07               	movwf	I2C1_CallbackRegister@callbackHandler^(0+1280),c
  4861   01113C  0E17               	movlw	high _I2C1_DefaultCallback
  4862   01113E  6E08               	movwf	(I2C1_CallbackRegister@callbackHandler+1)^(0+1280),c
  4863   011140  0E01               	movlw	low (_I2C1_DefaultCallback shr (0+16))
  4864   011142  6E09               	movwf	(I2C1_CallbackRegister@callbackHandler+2)^(0+1280),c
  4865   011144  EC8C  F08A         	call	_I2C1_CallbackRegister	;wreg free
  4866   011148  0012               	return		;funcret
  4867   01114A                     __end_of_I2C1_Initialize:
  4868                           	callstack 0
  4869                           
  4870 ;; *************** function _I2C1_InterruptsEnable *****************
  4871 ;; Defined at:
  4872 ;;		line 448 in file "mcc_generated_files/i2c_host/src/i2c1.c"
  4873 ;; Parameters:    Size  Location     Type
  4874 ;;		None
  4875 ;; Auto vars:     Size  Location     Type
  4876 ;;		None
  4877 ;; Return value:  Size  Location     Type
  4878 ;;                  1    wreg      void 
  4879 ;; Registers used:
  4880 ;;		None
  4881 ;; Tracked objects:
  4882 ;;		On entry : 0/0
  4883 ;;		On exit  : 0/0
  4884 ;;		Unchanged: 0/0
  4885 ;; Data sizes:     COMRAM   BANK5   BANK6   BANK7   BANK8   BANK9  BANK10  BANK11  BANK12  BANK13  BANK14  BANK15  BANK1
      +6  BANK17  BANK18  BANK19  BANK20  BANK21  BANK22  BANK23  BANK24  BANK25  BANK26  BANK27  BANK28  BANK29  BANK30  BANK3
      +1  BANK32  BANK33  BANK34  BANK35  BANK36
  4886 ;;      Params:         0       0       0       0       0       0       0       0       0       0       0       0       
      +0       0       0       0       0       0       0       0       0       0       0       0       0       0       0       
      +0       0       0       0       0       0
  4887 ;;      Locals:         0       0       0       0       0       0       0       0       0       0       0       0       
      +0       0       0       0       0       0       0       0       0       0       0       0       0       0       0       
      +0       0       0       0       0       0
  4888 ;;      Temps:          0       0       0       0       0       0       0       0       0       0       0       0       
      +0       0       0       0       0       0       0       0       0       0       0       0       0       0       0       
      +0       0       0       0       0       0
  4889 ;;      Totals:         0       0       0       0       0       0       0       0       0       0       0       0       
      +0       0       0       0       0       0       0       0       0       0       0       0       0       0       0       
      +0       0       0       0       0       0
  4890 ;;Total ram usage:        0 bytes
  4891 ;; Hardware stack levels used: 1
  4892 ;; Hardware stack levels required when called: 4
  4893 ;; This function calls:
  4894 ;;		Nothing
  4895 ;; This function is called by:
  4896 ;;		_I2C1_Initialize
  4897 ;; This function uses a non-reentrant model
  4898 ;;
  4899                           
  4900                           	psect	text33
  4901   011676                     __ptext33:
  4902                           	callstack 0
  4903   011676                     _I2C1_InterruptsEnable:
  4904                           	callstack 120
  4905   011676                     
  4906                           ;mcc_generated_files/i2c_host/src/i2c1.c: 450:     PIE7bits.I2C1IE = 1;
  4907   011676  84A5               	bsf	165,2,c	;volatile
  4908                           
  4909                           ;mcc_generated_files/i2c_host/src/i2c1.c: 451:     PIE7bits.I2C1EIE = 1;
  4910   011678  86A5               	bsf	165,3,c	;volatile
  4911                           
  4912                           ;mcc_generated_files/i2c_host/src/i2c1.c: 452:     PIE7bits.I2C1RXIE = 1;
  4913   01167A  80A5               	bsf	165,0,c	;volatile
  4914                           
  4915                           ;mcc_generated_files/i2c_host/src/i2c1.c: 453:     PIE7bits.I2C1TXIE = 1;
  4916   01167C  82A5               	bsf	165,1,c	;volatile
  4917                           
  4918                           ;mcc_generated_files/i2c_host/src/i2c1.c: 455:     I2C1PIEbits.PCIE = 1;
  4919   01167E  0102               	movlb	2	; () banked
  4920   011680  859B               	bsf	155,2,b	;volatile
  4921                           
  4922                           ;mcc_generated_files/i2c_host/src/i2c1.c: 456:     I2C1PIEbits.RSCIE = 1;
  4923   011682  839B               	bsf	155,1,b	;volatile
  4924                           
  4925                           ;mcc_generated_files/i2c_host/src/i2c1.c: 457:     I2C1PIEbits.CNTIE = 1;
  4926   011684  8F9B               	bsf	155,7,b	;volatile
  4927                           
  4928                           ;mcc_generated_files/i2c_host/src/i2c1.c: 458:     I2C1ERRbits.NACKIE = 1;
  4929   011686  8197               	bsf	151,0,b	;volatile
  4930   011688                     
  4931                           ; BSR set to: 2
  4932   011688  0012               	return		;funcret
  4933   01168A                     __end_of_I2C1_InterruptsEnable:
  4934                           	callstack 0
  4935                           
  4936 ;; *************** function _I2C1_CallbackRegister *****************
  4937 ;; Defined at:
  4938 ;;		line 216 in file "mcc_generated_files/i2c_host/src/i2c1.c"
  4939 ;; Parameters:    Size  Location     Type
  4940 ;;  callbackHand    3    6[COMRAM] PTR FTN()void 
  4941 ;;		 -> I2C1_DefaultCallback(1), 
  4942 ;; Auto vars:     Size  Location     Type
  4943 ;;		None
  4944 ;; Return value:  Size  Location     Type
  4945 ;;                  1    wreg      void 
  4946 ;; Registers used:
  4947 ;;		wreg, status,2, status,0
  4948 ;; Tracked objects:
  4949 ;;		On entry : 0/0
  4950 ;;		On exit  : 0/0
  4951 ;;		Unchanged: 0/0
  4952 ;; Data sizes:     COMRAM   BANK5   BANK6   BANK7   BANK8   BANK9  BANK10  BANK11  BANK12  BANK13  BANK14  BANK15  BANK1
      +6  BANK17  BANK18  BANK19  BANK20  BANK21  BANK22  BANK23  BANK24  BANK25  BANK26  BANK27  BANK28  BANK29  BANK30  BANK3
      +1  BANK32  BANK33  BANK34  BANK35  BANK36
  4953 ;;      Params:         3       0       0       0       0       0       0       0       0       0       0       0       
      +0       0       0       0       0       0       0       0       0       0       0       0       0       0       0       
      +0       0       0       0       0       0
  4954 ;;      Locals:         0       0       0       0       0       0       0       0       0       0       0       0       
      +0       0       0       0       0       0       0       0       0       0       0       0       0       0       0       
      +0       0       0       0       0       0
  4955 ;;      Temps:          0       0       0       0       0       0       0       0       0       0       0       0       
      +0       0       0       0       0       0       0       0       0       0       0       0       0       0       0       
      +0       0       0       0       0       0
  4956 ;;      Totals:         3       0       0       0       0       0       0       0       0       0       0       0       
      +0       0       0       0       0       0       0       0       0       0       0       0       0       0       0       
      +0       0       0       0       0       0
  4957 ;;Total ram usage:        3 bytes
  4958 ;; Hardware stack levels used: 1
  4959 ;; Hardware stack levels required when called: 4
  4960 ;; This function calls:
  4961 ;;		Nothing
  4962 ;; This function is called by:
  4963 ;;		_I2C1_Initialize
  4964 ;;		_I2C1_Deinitialize
  4965 ;; This function uses a non-reentrant model
  4966 ;;
  4967                           
  4968                           	psect	text34
  4969   011518                     __ptext34:
  4970                           	callstack 0
  4971   011518                     _I2C1_CallbackRegister:
  4972                           	callstack 120
  4973   011518                     
  4974                           ;mcc_generated_files/i2c_host/src/i2c1.c: 216: void I2C1_CallbackRegister(void (*callbac
      +                          kHandler)(void));mcc_generated_files/i2c_host/src/i2c1.c: 217: {;mcc_generated_files/i2c
      +                          _host/src/i2c1.c: 218:     if (callbackHandler != ((void*)0))
  4975   011518  5007               	movf	I2C1_CallbackRegister@callbackHandler^(0+1280),w,c
  4976   01151A  1008               	iorwf	(I2C1_CallbackRegister@callbackHandler+1)^(0+1280),w,c
  4977   01151C  1009               	iorwf	(I2C1_CallbackRegister@callbackHandler+2)^(0+1280),w,c
  4978   01151E  B4D8               	btfsc	status,2,c
  4979   011520  EF94  F08A         	goto	u1791
  4980   011524  EF96  F08A         	goto	u1790
  4981   011528                     u1791:
  4982   011528  EF9C  F08A         	goto	l146
  4983   01152C                     u1790:
  4984   01152C                     
  4985                           ;mcc_generated_files/i2c_host/src/i2c1.c: 219:     {;mcc_generated_files/i2c_host/src/i2
      +                          c1.c: 220:         I2C1_Callback = callbackHandler;
  4986   01152C  C507  F5BE         	movff	I2C1_CallbackRegister@callbackHandler,_I2C1_Callback
  4987   011530  C508  F5BF         	movff	I2C1_CallbackRegister@callbackHandler+1,_I2C1_Callback+1
  4988   011534  C509  F5C0         	movff	I2C1_CallbackRegister@callbackHandler+2,_I2C1_Callback+2
  4989   011538                     l146:
  4990   011538  0012               	return		;funcret
  4991   01153A                     __end_of_I2C1_CallbackRegister:
  4992                           	callstack 0
  4993                           
  4994 ;; *************** function _CLOCK_Initialize *****************
  4995 ;; Defined at:
  4996 ;;		line 37 in file "mcc_generated_files/system/src/clock.c"
  4997 ;; Parameters:    Size  Location     Type
  4998 ;;		None
  4999 ;; Auto vars:     Size  Location     Type
  5000 ;;		None
  5001 ;; Return value:  Size  Location     Type
  5002 ;;                  1    wreg      void 
  5003 ;; Registers used:
  5004 ;;		wreg, status,2
  5005 ;; Tracked objects:
  5006 ;;		On entry : 0/0
  5007 ;;		On exit  : 0/0
  5008 ;;		Unchanged: 0/0
  5009 ;; Data sizes:     COMRAM   BANK5   BANK6   BANK7   BANK8   BANK9  BANK10  BANK11  BANK12  BANK13  BANK14  BANK15  BANK1
      +6  BANK17  BANK18  BANK19  BANK20  BANK21  BANK22  BANK23  BANK24  BANK25  BANK26  BANK27  BANK28  BANK29  BANK30  BANK3
      +1  BANK32  BANK33  BANK34  BANK35  BANK36
  5010 ;;      Params:         0       0       0       0       0       0       0       0       0       0       0       0       
      +0       0       0       0       0       0       0       0       0       0       0       0       0       0       0       
      +0       0       0       0       0       0
  5011 ;;      Locals:         0       0       0       0       0       0       0       0       0       0       0       0       
      +0       0       0       0       0       0       0       0       0       0       0       0       0       0       0       
      +0       0       0       0       0       0
  5012 ;;      Temps:          0       0       0       0       0       0       0       0       0       0       0       0       
      +0       0       0       0       0       0       0       0       0       0       0       0       0       0       0       
      +0       0       0       0       0       0
  5013 ;;      Totals:         0       0       0       0       0       0       0       0       0       0       0       0       
      +0       0       0       0       0       0       0       0       0       0       0       0       0       0       0       
      +0       0       0       0       0       0
  5014 ;;Total ram usage:        0 bytes
  5015 ;; Hardware stack levels used: 1
  5016 ;; Hardware stack levels required when called: 4
  5017 ;; This function calls:
  5018 ;;		Nothing
  5019 ;; This function is called by:
  5020 ;;		_SYSTEM_Initialize
  5021 ;; This function uses a non-reentrant model
  5022 ;;
  5023                           
  5024                           	psect	text35
  5025   011576                     __ptext35:
  5026                           	callstack 0
  5027   011576                     _CLOCK_Initialize:
  5028                           	callstack 121
  5029   011576                     
  5030                           ;mcc_generated_files/system/src/clock.c: 41:     OSCCON1 = 0x60;
  5031   011576  0E60               	movlw	96
  5032   011578  0100               	movlb	0	; () banked
  5033   01157A  6FAD               	movwf	173,b	;volatile
  5034                           
  5035                           ;mcc_generated_files/system/src/clock.c: 43:     OSCCON3 = 0x0;
  5036   01157C  0E00               	movlw	0
  5037   01157E  6FAF               	movwf	175,b	;volatile
  5038                           
  5039                           ;mcc_generated_files/system/src/clock.c: 45:     OSCEN = 0x0;
  5040   011580  0E00               	movlw	0
  5041   011582  6FB3               	movwf	179,b	;volatile
  5042                           
  5043                           ;mcc_generated_files/system/src/clock.c: 47:     OSCFRQ = 0x7;
  5044   011584  0E07               	movlw	7
  5045   011586  6FB1               	movwf	177,b	;volatile
  5046                           
  5047                           ;mcc_generated_files/system/src/clock.c: 49:     OSCTUNE = 0x0;
  5048   011588  0E00               	movlw	0
  5049   01158A  6FB0               	movwf	176,b	;volatile
  5050                           
  5051                           ;mcc_generated_files/system/src/clock.c: 51:     ACTCON = 0x0;
  5052   01158C  0E00               	movlw	0
  5053   01158E  6FAC               	movwf	172,b	;volatile
  5054   011590                     
  5055                           ; BSR set to: 0
  5056   011590  0012               	return		;funcret
  5057   011592                     __end_of_CLOCK_Initialize:
  5058                           	callstack 0
  5059                           
  5060 ;; *************** function _INTERRUPT_InterruptManager *****************
  5061 ;; Defined at:
  5062 ;;		line 80 in file "mcc_generated_files/system/src/interrupt.c"
  5063 ;; Parameters:    Size  Location     Type
  5064 ;;		None
  5065 ;; Auto vars:     Size  Location     Type
  5066 ;;		None
  5067 ;; Return value:  Size  Location     Type
  5068 ;;                  1    wreg      void 
  5069 ;; Registers used:
  5070 ;;		wreg, fsr1l, fsr1h, fsr2l, fsr2h, status,2, status,0, pcl, pclath, pclatu, tosl, prodl, prodh, cstack
  5071 ;; Tracked objects:
  5072 ;;		On entry : 0/0
  5073 ;;		On exit  : 0/0
  5074 ;;		Unchanged: 0/0
  5075 ;; Data sizes:     COMRAM   BANK5   BANK6   BANK7   BANK8   BANK9  BANK10  BANK11  BANK12  BANK13  BANK14  BANK15  BANK1
      +6  BANK17  BANK18  BANK19  BANK20  BANK21  BANK22  BANK23  BANK24  BANK25  BANK26  BANK27  BANK28  BANK29  BANK30  BANK3
      +1  BANK32  BANK33  BANK34  BANK35  BANK36
  5076 ;;      Params:         0       0       0       0       0       0       0       0       0       0       0       0       
      +0       0       0       0       0       0       0       0       0       0       0       0       0       0       0       
      +0       0       0       0       0       0
  5077 ;;      Locals:         0       0       0       0       0       0       0       0       0       0       0       0       
      +0       0       0       0       0       0       0       0       0       0       0       0       0       0       0       
      +0       0       0       0       0       0
  5078 ;;      Temps:          2       0       0       0       0       0       0       0       0       0       0       0       
      +0       0       0       0       0       0       0       0       0       0       0       0       0       0       0       
      +0       0       0       0       0       0
  5079 ;;      Totals:         2       0       0       0       0       0       0       0       0       0       0       0       
      +0       0       0       0       0       0       0       0       0       0       0       0       0       0       0       
      +0       0       0       0       0       0
  5080 ;;Total ram usage:        2 bytes
  5081 ;; Hardware stack levels used: 1
  5082 ;; Hardware stack levels required when called: 3
  5083 ;; This function calls:
  5084 ;;		Absolute function
  5085 ;;		_I2C1_ERROR_ISR
  5086 ;;		_I2C1_ISR
  5087 ;;		_I2C1_RX_ISR
  5088 ;;		_I2C1_TX_ISR
  5089 ;;		_INT2_ISR
  5090 ;;		_PIN_MANAGER_IOC
  5091 ;;		_Timer0_OverflowISR
  5092 ;;		_UART1_ReceiveISR
  5093 ;;		_UART1_TransmitISR
  5094 ;; This function is called by:
  5095 ;;		Interrupt level 2
  5096 ;; This function uses a non-reentrant model
  5097 ;;
  5098                           
  5099                           	psect	text36
  5100   010404                     __ptext36:
  5101                           	callstack 0
  5102   010404                     _INTERRUPT_InterruptManager:
  5103                           	callstack 112
  5104                           
  5105                           ; BSR set to: 0
  5106                           ;incstack = 0
  5107   010404  C4FA F505          	movff	pclath,??_INTERRUPT_InterruptManager
  5108   010408  C4FB F506          	movff	pclatu,??_INTERRUPT_InterruptManager+1
  5109   01040C                     
  5110                           ;mcc_generated_files/system/src/interrupt.c: 83:     if(PIE0bits.IOCIE == 1 && PIR0bits.
      +                          IOCIF == 1)
  5111   01040C  AE9E               	btfss	158,7,c	;volatile
  5112   01040E  EF0B  F082         	goto	i2u239_41
  5113   010412  EF0D  F082         	goto	i2u239_40
  5114   010416                     i2u239_41:
  5115   010416  EF16  F082         	goto	i2l3773
  5116   01041A                     i2u239_40:
  5117   01041A  AEAE               	btfss	174,7,c	;volatile
  5118   01041C  EF12  F082         	goto	i2u240_41
  5119   010420  EF14  F082         	goto	i2u240_40
  5120   010424                     i2u240_41:
  5121   010424  EF16  F082         	goto	i2l3773
  5122   010428                     i2u240_40:
  5123   010428                     
  5124                           ;mcc_generated_files/system/src/interrupt.c: 84:     {;mcc_generated_files/system/src/in
      +                          terrupt.c: 85:         PIN_MANAGER_IOC();
  5125   010428  ECA2  F08B         	call	_PIN_MANAGER_IOC	;wreg free
  5126   01042C                     i2l3773:
  5127                           
  5128                           ;mcc_generated_files/system/src/interrupt.c: 88:     if(PIE10bits.INT2IE == 1 && PIR10bi
      +                          ts.INT2IF == 1)
  5129   01042C  A0A8               	btfss	168,0,c	;volatile
  5130   01042E  EF1B  F082         	goto	i2u241_41
  5131   010432  EF1D  F082         	goto	i2u241_40
  5132   010436                     i2u241_41:
  5133   010436  EF28  F082         	goto	i2l432
  5134   01043A                     i2u241_40:
  5135   01043A  A0B8               	btfss	184,0,c	;volatile
  5136   01043C  EF22  F082         	goto	i2u242_41
  5137   010440  EF24  F082         	goto	i2u242_40
  5138   010444                     i2u242_41:
  5139   010444  EF28  F082         	goto	i2l432
  5140   010448                     i2u242_40:
  5141   010448                     
  5142                           ;mcc_generated_files/system/src/interrupt.c: 89:     {;mcc_generated_files/system/src/in
      +                          terrupt.c: 90:         INT2_ISR();
  5143   010448  EC7F  F08B         	call	_INT2_ISR	;wreg free
  5144                           
  5145                           ;mcc_generated_files/system/src/interrupt.c: 91:     }
  5146   01044C  EFBE  F082         	goto	i2l448
  5147   010450                     i2l432:
  5148   010450  A6A5               	btfss	165,3,c	;volatile
  5149   010452  EF2D  F082         	goto	i2u243_41
  5150   010456  EF2F  F082         	goto	i2u243_40
  5151   01045A                     i2u243_41:
  5152   01045A  EF3A  F082         	goto	i2l434
  5153   01045E                     i2u243_40:
  5154   01045E  A6B5               	btfss	181,3,c	;volatile
  5155   010460  EF34  F082         	goto	i2u244_41
  5156   010464  EF36  F082         	goto	i2u244_40
  5157   010468                     i2u244_41:
  5158   010468  EF3A  F082         	goto	i2l434
  5159   01046C                     i2u244_40:
  5160   01046C                     
  5161                           ;mcc_generated_files/system/src/interrupt.c: 93:     {;mcc_generated_files/system/src/in
      +                          terrupt.c: 94:         I2C1_ERROR_ISR();
  5162   01046C  ECA0  F085         	call	_I2C1_ERROR_ISR	;wreg free
  5163                           
  5164                           ;mcc_generated_files/system/src/interrupt.c: 95:     }
  5165   010470  EFBE  F082         	goto	i2l448
  5166   010474                     i2l434:
  5167   010474  A0A5               	btfss	165,0,c	;volatile
  5168   010476  EF3F  F082         	goto	i2u245_41
  5169   01047A  EF41  F082         	goto	i2u245_40
  5170   01047E                     i2u245_41:
  5171   01047E  EF4C  F082         	goto	i2l436
  5172   010482                     i2u245_40:
  5173   010482  A0B5               	btfss	181,0,c	;volatile
  5174   010484  EF46  F082         	goto	i2u246_41
  5175   010488  EF48  F082         	goto	i2u246_40
  5176   01048C                     i2u246_41:
  5177   01048C  EF4C  F082         	goto	i2l436
  5178   010490                     i2u246_40:
  5179   010490                     
  5180                           ;mcc_generated_files/system/src/interrupt.c: 97:     {;mcc_generated_files/system/src/in
      +                          terrupt.c: 98:         I2C1_RX_ISR();
  5181   010490  ECF9  F08A         	call	_I2C1_RX_ISR	;wreg free
  5182                           
  5183                           ;mcc_generated_files/system/src/interrupt.c: 99:     }
  5184   010494  EFBE  F082         	goto	i2l448
  5185   010498                     i2l436:
  5186   010498  A4A5               	btfss	165,2,c	;volatile
  5187   01049A  EF51  F082         	goto	i2u247_41
  5188   01049E  EF53  F082         	goto	i2u247_40
  5189   0104A2                     i2u247_41:
  5190   0104A2  EF5E  F082         	goto	i2l438
  5191   0104A6                     i2u247_40:
  5192   0104A6  A4B5               	btfss	181,2,c	;volatile
  5193   0104A8  EF58  F082         	goto	i2u248_41
  5194   0104AC  EF5A  F082         	goto	i2u248_40
  5195   0104B0                     i2u248_41:
  5196   0104B0  EF5E  F082         	goto	i2l438
  5197   0104B4                     i2u248_40:
  5198   0104B4                     
  5199                           ;mcc_generated_files/system/src/interrupt.c: 101:     {;mcc_generated_files/system/src/i
      +                          nterrupt.c: 102:         I2C1_ISR();
  5200   0104B4  EC7A  F087         	call	_I2C1_ISR	;wreg free
  5201                           
  5202                           ;mcc_generated_files/system/src/interrupt.c: 103:     }
  5203   0104B8  EFBE  F082         	goto	i2l448
  5204   0104BC                     i2l438:
  5205   0104BC  A2A5               	btfss	165,1,c	;volatile
  5206   0104BE  EF63  F082         	goto	i2u249_41
  5207   0104C2  EF65  F082         	goto	i2u249_40
  5208   0104C6                     i2u249_41:
  5209   0104C6  EF70  F082         	goto	i2l440
  5210   0104CA                     i2u249_40:
  5211   0104CA  A2B5               	btfss	181,1,c	;volatile
  5212   0104CC  EF6A  F082         	goto	i2u250_41
  5213   0104D0  EF6C  F082         	goto	i2u250_40
  5214   0104D4                     i2u250_41:
  5215   0104D4  EF70  F082         	goto	i2l440
  5216   0104D8                     i2u250_40:
  5217   0104D8                     
  5218                           ;mcc_generated_files/system/src/interrupt.c: 105:     {;mcc_generated_files/system/src/i
      +                          nterrupt.c: 106:         I2C1_TX_ISR();
  5219   0104D8  ECEE  F08A         	call	_I2C1_TX_ISR	;wreg free
  5220                           
  5221                           ;mcc_generated_files/system/src/interrupt.c: 107:     }
  5222   0104DC  EFBE  F082         	goto	i2l448
  5223   0104E0                     i2l440:
  5224   0104E0  A2A2               	btfss	162,1,c	;volatile
  5225   0104E2  EF75  F082         	goto	i2u251_41
  5226   0104E6  EF77  F082         	goto	i2u251_40
  5227   0104EA                     i2u251_41:
  5228   0104EA  EF8E  F082         	goto	i2l442
  5229   0104EE                     i2u251_40:
  5230   0104EE  A2B2               	btfss	178,1,c	;volatile
  5231   0104F0  EF7C  F082         	goto	i2u252_41
  5232   0104F4  EF7E  F082         	goto	i2u252_40
  5233   0104F8                     i2u252_41:
  5234   0104F8  EF8E  F082         	goto	i2l442
  5235   0104FC                     i2u252_40:
  5236   0104FC                     
  5237                           ;mcc_generated_files/system/src/interrupt.c: 109:     {;mcc_generated_files/system/src/i
      +                          nterrupt.c: 110:         UART1_TxInterruptHandler();
  5238   0104FC  D802               	call	i2u253_48
  5239   0104FE  EF8C  F082         	goto	i2u253_49
  5240   010502                     i2u253_48:
  5241   010502  0005               	push	
  5242   010504  6EFA               	movwf	pclath,c
  5243   010506  0105               	movlb	5	; () banked
  5244   010508  51BB               	movf	_UART1_TxInterruptHandler& (0+255),w,b
  5245   01050A  6EFD               	movwf	tosl,c
  5246   01050C  51BC               	movf	(_UART1_TxInterruptHandler+1)& (0+255),w,b
  5247   01050E  6EFE               	movwf	tosh,c
  5248   010510  51BD               	movf	(_UART1_TxInterruptHandler+2)& (0+255),w,b
  5249   010512  6EFF               	movwf	tosu,c
  5250   010514  50FA               	movf	pclath,w,c
  5251   010516  0012               	return		;indir
  5252   010518                     i2u253_49:
  5253                           
  5254                           ;mcc_generated_files/system/src/interrupt.c: 111:     }
  5255   010518  EFBE  F082         	goto	i2l448
  5256   01051C                     i2l442:
  5257   01051C  A0A2               	btfss	162,0,c	;volatile
  5258   01051E  EF93  F082         	goto	i2u254_41
  5259   010522  EF95  F082         	goto	i2u254_40
  5260   010526                     i2u254_41:
  5261   010526  EFAC  F082         	goto	i2l444
  5262   01052A                     i2u254_40:
  5263   01052A  A0B2               	btfss	178,0,c	;volatile
  5264   01052C  EF9A  F082         	goto	i2u255_41
  5265   010530  EF9C  F082         	goto	i2u255_40
  5266   010534                     i2u255_41:
  5267   010534  EFAC  F082         	goto	i2l444
  5268   010538                     i2u255_40:
  5269   010538                     
  5270                           ;mcc_generated_files/system/src/interrupt.c: 113:     {;mcc_generated_files/system/src/i
      +                          nterrupt.c: 114:         UART1_RxInterruptHandler();
  5271   010538  D802               	call	i2u256_48
  5272   01053A  EFAA  F082         	goto	i2u256_49
  5273   01053E                     i2u256_48:
  5274   01053E  0005               	push	
  5275   010540  6EFA               	movwf	pclath,c
  5276   010542  0105               	movlb	5	; () banked
  5277   010544  51B8               	movf	_UART1_RxInterruptHandler& (0+255),w,b
  5278   010546  6EFD               	movwf	tosl,c
  5279   010548  51B9               	movf	(_UART1_RxInterruptHandler+1)& (0+255),w,b
  5280   01054A  6EFE               	movwf	tosh,c
  5281   01054C  51BA               	movf	(_UART1_RxInterruptHandler+2)& (0+255),w,b
  5282   01054E  6EFF               	movwf	tosu,c
  5283   010550  50FA               	movf	pclath,w,c
  5284   010552  0012               	return		;indir
  5285   010554                     i2u256_49:
  5286                           
  5287                           ;mcc_generated_files/system/src/interrupt.c: 115:     }
  5288   010554  EFBE  F082         	goto	i2l448
  5289   010558                     i2l444:
  5290   010558  AEA1               	btfss	161,7,c	;volatile
  5291   01055A  EFB1  F082         	goto	i2u257_41
  5292   01055E  EFB3  F082         	goto	i2u257_40
  5293   010562                     i2u257_41:
  5294   010562  EFBE  F082         	goto	i2l443
  5295   010566                     i2u257_40:
  5296   010566  AEB1               	btfss	177,7,c	;volatile
  5297   010568  EFB8  F082         	goto	i2u258_41
  5298   01056C  EFBA  F082         	goto	i2u258_40
  5299   010570                     i2u258_41:
  5300   010570  EFBE  F082         	goto	i2l443
  5301   010574                     i2u258_40:
  5302   010574                     
  5303                           ;mcc_generated_files/system/src/interrupt.c: 117:     {;mcc_generated_files/system/src/i
      +                          nterrupt.c: 118:         Timer0_OverflowISR();
  5304   010574  ECAC  F089         	call	_Timer0_OverflowISR	;wreg free
  5305                           
  5306                           ;mcc_generated_files/system/src/interrupt.c: 119:     }
  5307   010578  EFBE  F082         	goto	i2l448
  5308   01057C                     i2l443:
  5309   01057C                     i2l448:
  5310   01057C  C506  F4FB         	movff	??_INTERRUPT_InterruptManager+1,pclatu
  5311   010580  C505  F4FA         	movff	??_INTERRUPT_InterruptManager,pclath
  5312   010584  0011               	retfie		f
  5313   010586                     __end_of_INTERRUPT_InterruptManager:
  5314                           	callstack 0
  5315                           
  5316 ;; *************** function _UART1_TransmitISR *****************
  5317 ;; Defined at:
  5318 ;;		line 406 in file "mcc_generated_files/uart/src/uart1.c"
  5319 ;; Parameters:    Size  Location     Type
  5320 ;;		None
  5321 ;; Auto vars:     Size  Location     Type
  5322 ;;  tempTxTail      1    0[COMRAM] unsigned char 
  5323 ;; Return value:  Size  Location     Type
  5324 ;;                  1    wreg      void 
  5325 ;; Registers used:
  5326 ;;		wreg, fsr2l, fsr2h, status,2, status,0
  5327 ;; Tracked objects:
  5328 ;;		On entry : 0/0
  5329 ;;		On exit  : 0/0
  5330 ;;		Unchanged: 0/0
  5331 ;; Data sizes:     COMRAM   BANK5   BANK6   BANK7   BANK8   BANK9  BANK10  BANK11  BANK12  BANK13  BANK14  BANK15  BANK1
      +6  BANK17  BANK18  BANK19  BANK20  BANK21  BANK22  BANK23  BANK24  BANK25  BANK26  BANK27  BANK28  BANK29  BANK30  BANK3
      +1  BANK32  BANK33  BANK34  BANK35  BANK36
  5332 ;;      Params:         0       0       0       0       0       0       0       0       0       0       0       0       
      +0       0       0       0       0       0       0       0       0       0       0       0       0       0       0       
      +0       0       0       0       0       0
  5333 ;;      Locals:         1       0       0       0       0       0       0       0       0       0       0       0       
      +0       0       0       0       0       0       0       0       0       0       0       0       0       0       0       
      +0       0       0       0       0       0
  5334 ;;      Temps:          0       0       0       0       0       0       0       0       0       0       0       0       
      +0       0       0       0       0       0       0       0       0       0       0       0       0       0       0       
      +0       0       0       0       0       0
  5335 ;;      Totals:         1       0       0       0       0       0       0       0       0       0       0       0       
      +0       0       0       0       0       0       0       0       0       0       0       0       0       0       0       
      +0       0       0       0       0       0
  5336 ;;Total ram usage:        1 bytes
  5337 ;; Hardware stack levels used: 1
  5338 ;; This function calls:
  5339 ;;		Nothing
  5340 ;; This function is called by:
  5341 ;;		_UART1_Initialize
  5342 ;;		_INTERRUPT_InterruptManager
  5343 ;; This function uses a non-reentrant model
  5344 ;;
  5345                           
  5346                           	psect	text37
  5347   011322                     __ptext37:
  5348                           	callstack 0
  5349   011322                     _UART1_TransmitISR:
  5350                           	callstack 114
  5351   011322                     
  5352                           ;mcc_generated_files/uart/src/uart1.c: 408:     uint8_t tempTxTail;;mcc_generated_files/
      +                          uart/src/uart1.c: 410:     if(sizeof(uart1TxBuffer) > uart1TxBufferRemaining)
  5353   011322  0E40               	movlw	64
  5354   011324  6057               	cpfslt	_uart1TxBufferRemaining^(0+1280),c	;volatile
  5355   011326  EF97  F089         	goto	i2u223_41
  5356   01132A  EF99  F089         	goto	i2u223_40
  5357   01132E                     i2u223_41:
  5358   01132E  EFAA  F089         	goto	i2l950
  5359   011332                     i2u223_40:
  5360   011332                     
  5361                           ;mcc_generated_files/uart/src/uart1.c: 411:     {;mcc_generated_files/uart/src/uart1.c: 
      +                          412:        U1TXB = uart1TxBuffer[uart1TxTail];
  5362   011332  0E50               	movlw	low _uart1TxBuffer
  5363   011334  2458               	addwf	_uart1TxTail^(0+1280),w,c	;volatile
  5364   011336  6ED9               	movwf	fsr2l,c
  5365   011338  6ADA               	clrf	fsr2h,c
  5366   01133A  0E06               	movlw	high _uart1TxBuffer
  5367   01133C  22DA               	addwfc	fsr2h,f,c
  5368   01133E  50DF               	movf	indf2,w,c
  5369   011340  0102               	movlb	2	; () banked
  5370   011342  6FA3               	movwf	163,b	;volatile
  5371   011344                     
  5372                           ; BSR set to: 2
  5373                           ;mcc_generated_files/uart/src/uart1.c: 413:        tempTxTail = (uart1TxTail + 1) & ((64
      +                          ) - 1);
  5374   011344  2858               	incf	_uart1TxTail^(0+1280),w,c	;volatile
  5375   011346  0B3F               	andlw	63
  5376   011348  6E01               	movwf	UART1_TransmitISR@tempTxTail^(0+1280),c
  5377   01134A                     
  5378                           ; BSR set to: 2
  5379                           ;mcc_generated_files/uart/src/uart1.c: 415:        uart1TxTail = tempTxTail;
  5380   01134A  C501  F558         	movff	UART1_TransmitISR@tempTxTail,_uart1TxTail	;volatile
  5381   01134E                     
  5382                           ; BSR set to: 2
  5383                           ;mcc_generated_files/uart/src/uart1.c: 416:        uart1TxBufferRemaining++;
  5384   01134E  2A57               	incf	_uart1TxBufferRemaining^(0+1280),f,c	;volatile
  5385                           
  5386                           ;mcc_generated_files/uart/src/uart1.c: 417:     }
  5387   011350  EFAB  F089         	goto	i2l953
  5388   011354                     i2l950:
  5389                           
  5390                           ;mcc_generated_files/uart/src/uart1.c: 419:     {;mcc_generated_files/uart/src/uart1.c: 
      +                          420:         PIE4bits.U1TXIE = 0;
  5391   011354  92A2               	bcf	162,1,c	;volatile
  5392   011356                     i2l953:
  5393   011356  0012               	return		;funcret
  5394   011358                     __end_of_UART1_TransmitISR:
  5395                           	callstack 0
  5396                           
  5397 ;; *************** function _UART1_ReceiveISR *****************
  5398 ;; Defined at:
  5399 ;;		line 337 in file "mcc_generated_files/uart/src/uart1.c"
  5400 ;; Parameters:    Size  Location     Type
  5401 ;;		None
  5402 ;; Auto vars:     Size  Location     Type
  5403 ;;  tempRxHead      1    1[COMRAM] unsigned char 
  5404 ;;  regValue        1    0[COMRAM] unsigned char 
  5405 ;; Return value:  Size  Location     Type
  5406 ;;                  1    wreg      void 
  5407 ;; Registers used:
  5408 ;;		wreg, fsr2l, fsr2h, status,2, status,0, pcl, pclath, pclatu, tosl, prodl, prodh, cstack
  5409 ;; Tracked objects:
  5410 ;;		On entry : 0/0
  5411 ;;		On exit  : 0/0
  5412 ;;		Unchanged: 0/0
  5413 ;; Data sizes:     COMRAM   BANK5   BANK6   BANK7   BANK8   BANK9  BANK10  BANK11  BANK12  BANK13  BANK14  BANK15  BANK1
      +6  BANK17  BANK18  BANK19  BANK20  BANK21  BANK22  BANK23  BANK24  BANK25  BANK26  BANK27  BANK28  BANK29  BANK30  BANK3
      +1  BANK32  BANK33  BANK34  BANK35  BANK36
  5414 ;;      Params:         0       0       0       0       0       0       0       0       0       0       0       0       
      +0       0       0       0       0       0       0       0       0       0       0       0       0       0       0       
      +0       0       0       0       0       0
  5415 ;;      Locals:         2       0       0       0       0       0       0       0       0       0       0       0       
      +0       0       0       0       0       0       0       0       0       0       0       0       0       0       0       
      +0       0       0       0       0       0
  5416 ;;      Temps:          0       0       0       0       0       0       0       0       0       0       0       0       
      +0       0       0       0       0       0       0       0       0       0       0       0       0       0       0       
      +0       0       0       0       0       0
  5417 ;;      Totals:         2       0       0       0       0       0       0       0       0       0       0       0       
      +0       0       0       0       0       0       0       0       0       0       0       0       0       0       0       
      +0       0       0       0       0       0
  5418 ;;Total ram usage:        2 bytes
  5419 ;; Hardware stack levels used: 1
  5420 ;; Hardware stack levels required when called: 1
  5421 ;; This function calls:
  5422 ;;		Absolute function
  5423 ;;		_UART1_DefaultFramingErrorCallback
  5424 ;;		_UART1_DefaultOverrunErrorCallback
  5425 ;; This function is called by:
  5426 ;;		_UART1_Initialize
  5427 ;;		_INTERRUPT_InterruptManager
  5428 ;; This function uses a non-reentrant model
  5429 ;;
  5430                           
  5431                           	psect	text38
  5432   010A4C                     __ptext38:
  5433                           	callstack 0
  5434   010A4C                     _UART1_ReceiveISR:
  5435                           	callstack 113
  5436   010A4C                     
  5437                           ;mcc_generated_files/uart/src/uart1.c: 339:     uint8_t regValue;;mcc_generated_files/ua
      +                          rt/src/uart1.c: 340:  uint8_t tempRxHead;;mcc_generated_files/uart/src/uart1.c: 342:    
      +                           uart1RxStatusBuffer[uart1RxHead].status = 0;
  5438   010A4C  5056               	movf	_uart1RxHead^(0+1280),w,c	;volatile
  5439   010A4E  0D02               	mullw	2
  5440   010A50  0E60               	movlw	low _uart1RxStatusBuffer
  5441   010A52  24F3               	addwf	243,w,c
  5442   010A54  6ED9               	movwf	fsr2l,c
  5443   010A56  0E05               	movlw	high _uart1RxStatusBuffer
  5444   010A58  20F4               	addwfc	prodh,w,c
  5445   010A5A  6EDA               	movwf	fsr2h,c
  5446   010A5C  0E00               	movlw	0
  5447   010A5E  6EDE               	movwf	postinc2,c
  5448   010A60  0E00               	movlw	0
  5449   010A62  6EDD               	movwf	postdec2,c
  5450   010A64                     
  5451                           ;mcc_generated_files/uart/src/uart1.c: 344:     if(U1ERRIRbits.FERIF)
  5452   010A64  0102               	movlb	2	; () banked
  5453   010A66  A7B2               	btfss	178,3,b	;volatile
  5454   010A68  EF38  F085         	goto	i2u216_41
  5455   010A6C  EF3A  F085         	goto	i2u216_40
  5456   010A70                     i2u216_41:
  5457   010A70  EF5B  F085         	goto	i2l3593
  5458   010A74                     i2u216_40:
  5459   010A74                     
  5460                           ; BSR set to: 2
  5461                           ;mcc_generated_files/uart/src/uart1.c: 345:     {;mcc_generated_files/uart/src/uart1.c: 
      +                          346:         uart1RxStatusBuffer[uart1RxHead].ferr = 1;
  5462   010A74  5056               	movf	_uart1RxHead^(0+1280),w,c	;volatile
  5463   010A76  0D02               	mullw	2
  5464   010A78  0E60               	movlw	low _uart1RxStatusBuffer
  5465   010A7A  24F3               	addwf	243,w,c
  5466   010A7C  6ED9               	movwf	fsr2l,c
  5467   010A7E  0E05               	movlw	high _uart1RxStatusBuffer
  5468   010A80  20F4               	addwfc	prodh,w,c
  5469   010A82  6EDA               	movwf	fsr2h,c
  5470   010A84  0105               	movlb	5	; () banked
  5471   010A86  82DF               	bsf	indf2,1,c
  5472   010A88                     
  5473                           ; BSR set to: 5
  5474                           ;mcc_generated_files/uart/src/uart1.c: 347:         if(((void*)0) != UART1_FramingErrorH
      +                          andler)
  5475   010A88  51A9               	movf	_UART1_FramingErrorHandler& (0+255),w,b
  5476   010A8A  11AA               	iorwf	(_UART1_FramingErrorHandler+1)& (0+255),w,b
  5477   010A8C  11AB               	iorwf	(_UART1_FramingErrorHandler+2)& (0+255),w,b
  5478   010A8E  B4D8               	btfsc	status,2,c
  5479   010A90  EF4C  F085         	goto	i2u217_41
  5480   010A94  EF4E  F085         	goto	i2u217_40
  5481   010A98                     i2u217_41:
  5482   010A98  EF5B  F085         	goto	i2l3593
  5483   010A9C                     i2u217_40:
  5484   010A9C                     
  5485                           ; BSR set to: 5
  5486                           ;mcc_generated_files/uart/src/uart1.c: 348:         {;mcc_generated_files/uart/src/uart1
      +                          .c: 349:             UART1_FramingErrorHandler();
  5487   010A9C  D802               	call	i2u218_48
  5488   010A9E  EF5B  F085         	goto	i2u218_49
  5489   010AA2                     i2u218_48:
  5490   010AA2  0005               	push	
  5491   010AA4  6EFA               	movwf	pclath,c
  5492   010AA6  51A9               	movf	_UART1_FramingErrorHandler& (0+255),w,b
  5493   010AA8  6EFD               	movwf	tosl,c
  5494   010AAA  51AA               	movf	(_UART1_FramingErrorHandler+1)& (0+255),w,b
  5495   010AAC  6EFE               	movwf	tosh,c
  5496   010AAE  51AB               	movf	(_UART1_FramingErrorHandler+2)& (0+255),w,b
  5497   010AB0  6EFF               	movwf	tosu,c
  5498   010AB2  50FA               	movf	pclath,w,c
  5499   010AB4  0012               	return		;indir
  5500   010AB6                     i2u218_49:
  5501   010AB6                     i2l3593:
  5502                           
  5503                           ;mcc_generated_files/uart/src/uart1.c: 352:     if(U1ERRIRbits.RXFOIF)
  5504   010AB6  0102               	movlb	2	; () banked
  5505   010AB8  A3B2               	btfss	178,1,b	;volatile
  5506   010ABA  EF61  F085         	goto	i2u219_41
  5507   010ABE  EF63  F085         	goto	i2u219_40
  5508   010AC2                     i2u219_41:
  5509   010AC2  EF84  F085         	goto	i2l3601
  5510   010AC6                     i2u219_40:
  5511   010AC6                     
  5512                           ; BSR set to: 2
  5513                           ;mcc_generated_files/uart/src/uart1.c: 353:     {;mcc_generated_files/uart/src/uart1.c: 
      +                          354:         uart1RxStatusBuffer[uart1RxHead].oerr = 1;
  5514   010AC6  5056               	movf	_uart1RxHead^(0+1280),w,c	;volatile
  5515   010AC8  0D02               	mullw	2
  5516   010ACA  0E60               	movlw	low _uart1RxStatusBuffer
  5517   010ACC  24F3               	addwf	243,w,c
  5518   010ACE  6ED9               	movwf	fsr2l,c
  5519   010AD0  0E05               	movlw	high _uart1RxStatusBuffer
  5520   010AD2  20F4               	addwfc	prodh,w,c
  5521   010AD4  6EDA               	movwf	fsr2h,c
  5522   010AD6  0105               	movlb	5	; () banked
  5523   010AD8  84DF               	bsf	indf2,2,c
  5524   010ADA                     
  5525                           ; BSR set to: 5
  5526                           ;mcc_generated_files/uart/src/uart1.c: 355:         if(((void*)0) != UART1_OverrunErrorH
      +                          andler)
  5527   010ADA  51A6               	movf	_UART1_OverrunErrorHandler& (0+255),w,b
  5528   010ADC  11A7               	iorwf	(_UART1_OverrunErrorHandler+1)& (0+255),w,b
  5529   010ADE  11A8               	iorwf	(_UART1_OverrunErrorHandler+2)& (0+255),w,b
  5530   010AE0  B4D8               	btfsc	status,2,c
  5531   010AE2  EF75  F085         	goto	i2u220_41
  5532   010AE6  EF77  F085         	goto	i2u220_40
  5533   010AEA                     i2u220_41:
  5534   010AEA  EF84  F085         	goto	i2l3601
  5535   010AEE                     i2u220_40:
  5536   010AEE                     
  5537                           ; BSR set to: 5
  5538                           ;mcc_generated_files/uart/src/uart1.c: 356:         {;mcc_generated_files/uart/src/uart1
      +                          .c: 357:             UART1_OverrunErrorHandler();
  5539   010AEE  D802               	call	i2u221_48
  5540   010AF0  EF84  F085         	goto	i2u221_49
  5541   010AF4                     i2u221_48:
  5542   010AF4  0005               	push	
  5543   010AF6  6EFA               	movwf	pclath,c
  5544   010AF8  51A6               	movf	_UART1_OverrunErrorHandler& (0+255),w,b
  5545   010AFA  6EFD               	movwf	tosl,c
  5546   010AFC  51A7               	movf	(_UART1_OverrunErrorHandler+1)& (0+255),w,b
  5547   010AFE  6EFE               	movwf	tosh,c
  5548   010B00  51A8               	movf	(_UART1_OverrunErrorHandler+2)& (0+255),w,b
  5549   010B02  6EFF               	movwf	tosu,c
  5550   010B04  50FA               	movf	pclath,w,c
  5551   010B06  0012               	return		;indir
  5552   010B08                     i2u221_49:
  5553   010B08                     i2l3601:
  5554                           
  5555                           ;mcc_generated_files/uart/src/uart1.c: 361:     regValue = U1RXB;
  5556   010B08  C2A1 F501          	movff	673,UART1_ReceiveISR@regValue	;volatile
  5557   010B0C                     
  5558                           ;mcc_generated_files/uart/src/uart1.c: 363:     tempRxHead = (uart1RxHead + 1) & ((16) -
      +                           1);
  5559   010B0C  2856               	incf	_uart1RxHead^(0+1280),w,c	;volatile
  5560   010B0E  0B0F               	andlw	15
  5561   010B10  6E02               	movwf	UART1_ReceiveISR@tempRxHead^(0+1280),c
  5562   010B12                     
  5563                           ;mcc_generated_files/uart/src/uart1.c: 364:     if (tempRxHead == uart1RxTail)
  5564   010B12  5055               	movf	_uart1RxTail^(0+1280),w,c	;volatile
  5565   010B14  1802               	xorwf	UART1_ReceiveISR@tempRxHead^(0+1280),w,c
  5566   010B16  A4D8               	btfss	status,2,c
  5567   010B18  EF90  F085         	goto	i2u222_41
  5568   010B1C  EF92  F085         	goto	i2u222_40
  5569   010B20                     i2u222_41:
  5570   010B20  EF94  F085         	goto	i2l3609
  5571   010B24                     i2u222_40:
  5572   010B24  EF9F  F085         	goto	i2l940
  5573   010B28                     i2l3609:
  5574                           
  5575                           ;mcc_generated_files/uart/src/uart1.c: 369:     {;mcc_generated_files/uart/src/uart1.c: 
      +                          370:         uart1RxBuffer[uart1RxHead] = regValue;
  5576   010B28  0E80               	movlw	low _uart1RxBuffer
  5577   010B2A  2456               	addwf	_uart1RxHead^(0+1280),w,c	;volatile
  5578   010B2C  6ED9               	movwf	fsr2l,c
  5579   010B2E  6ADA               	clrf	fsr2h,c
  5580   010B30  0E05               	movlw	high _uart1RxBuffer
  5581   010B32  22DA               	addwfc	fsr2h,f,c
  5582   010B34  C501  F4DF         	movff	UART1_ReceiveISR@regValue,indf2
  5583   010B38                     
  5584                           ;mcc_generated_files/uart/src/uart1.c: 371:   uart1RxHead = tempRxHead;
  5585   010B38  C502  F556         	movff	UART1_ReceiveISR@tempRxHead,_uart1RxHead	;volatile
  5586   010B3C                     
  5587                           ;mcc_generated_files/uart/src/uart1.c: 372:   uart1RxCount++;
  5588   010B3C  2A54               	incf	_uart1RxCount^(0+1280),f,c	;volatile
  5589   010B3E                     i2l940:
  5590   010B3E  0012               	return		;funcret
  5591   010B40                     __end_of_UART1_ReceiveISR:
  5592                           	callstack 0
  5593                           
  5594 ;; *************** function _UART1_DefaultOverrunErrorCallback *****************
  5595 ;; Defined at:
  5596 ;;		line 449 in file "mcc_generated_files/uart/src/uart1.c"
  5597 ;; Parameters:    Size  Location     Type
  5598 ;;		None
  5599 ;; Auto vars:     Size  Location     Type
  5600 ;;		None
  5601 ;; Return value:  Size  Location     Type
  5602 ;;                  1    wreg      void 
  5603 ;; Registers used:
  5604 ;;		None
  5605 ;; Tracked objects:
  5606 ;;		On entry : 0/0
  5607 ;;		On exit  : 0/0
  5608 ;;		Unchanged: 0/0
  5609 ;; Data sizes:     COMRAM   BANK5   BANK6   BANK7   BANK8   BANK9  BANK10  BANK11  BANK12  BANK13  BANK14  BANK15  BANK1
      +6  BANK17  BANK18  BANK19  BANK20  BANK21  BANK22  BANK23  BANK24  BANK25  BANK26  BANK27  BANK28  BANK29  BANK30  BANK3
      +1  BANK32  BANK33  BANK34  BANK35  BANK36
  5610 ;;      Params:         0       0       0       0       0       0       0       0       0       0       0       0       
      +0       0       0       0       0       0       0       0       0       0       0       0       0       0       0       
      +0       0       0       0       0       0
  5611 ;;      Locals:         0       0       0       0       0       0       0       0       0       0       0       0       
      +0       0       0       0       0       0       0       0       0       0       0       0       0       0       0       
      +0       0       0       0       0       0
  5612 ;;      Temps:          0       0       0       0       0       0       0       0       0       0       0       0       
      +0       0       0       0       0       0       0       0       0       0       0       0       0       0       0       
      +0       0       0       0       0       0
  5613 ;;      Totals:         0       0       0       0       0       0       0       0       0       0       0       0       
      +0       0       0       0       0       0       0       0       0       0       0       0       0       0       0       
      +0       0       0       0       0       0
  5614 ;;Total ram usage:        0 bytes
  5615 ;; Hardware stack levels used: 1
  5616 ;; This function calls:
  5617 ;;		Nothing
  5618 ;; This function is called by:
  5619 ;;		_UART1_Initialize
  5620 ;;		_UART1_ReceiveISR
  5621 ;; This function uses a non-reentrant model
  5622 ;;
  5623                           
  5624                           	psect	text39
  5625   01173E                     __ptext39:
  5626                           	callstack 0
  5627   01173E                     _UART1_DefaultOverrunErrorCallback:
  5628                           	callstack 113
  5629   01173E  0012               	return		;funcret
  5630   011740                     __end_of_UART1_DefaultOverrunErrorCallback:
  5631                           	callstack 0
  5632                           
  5633 ;; *************** function _UART1_DefaultFramingErrorCallback *****************
  5634 ;; Defined at:
  5635 ;;		line 444 in file "mcc_generated_files/uart/src/uart1.c"
  5636 ;; Parameters:    Size  Location     Type
  5637 ;;		None
  5638 ;; Auto vars:     Size  Location     Type
  5639 ;;		None
  5640 ;; Return value:  Size  Location     Type
  5641 ;;                  1    wreg      void 
  5642 ;; Registers used:
  5643 ;;		None
  5644 ;; Tracked objects:
  5645 ;;		On entry : 0/0
  5646 ;;		On exit  : 0/0
  5647 ;;		Unchanged: 0/0
  5648 ;; Data sizes:     COMRAM   BANK5   BANK6   BANK7   BANK8   BANK9  BANK10  BANK11  BANK12  BANK13  BANK14  BANK15  BANK1
      +6  BANK17  BANK18  BANK19  BANK20  BANK21  BANK22  BANK23  BANK24  BANK25  BANK26  BANK27  BANK28  BANK29  BANK30  BANK3
      +1  BANK32  BANK33  BANK34  BANK35  BANK36
  5649 ;;      Params:         0       0       0       0       0       0       0       0       0       0       0       0       
      +0       0       0       0       0       0       0       0       0       0       0       0       0       0       0       
      +0       0       0       0       0       0
  5650 ;;      Locals:         0       0       0       0       0       0       0       0       0       0       0       0       
      +0       0       0       0       0       0       0       0       0       0       0       0       0       0       0       
      +0       0       0       0       0       0
  5651 ;;      Temps:          0       0       0       0       0       0       0       0       0       0       0       0       
      +0       0       0       0       0       0       0       0       0       0       0       0       0       0       0       
      +0       0       0       0       0       0
  5652 ;;      Totals:         0       0       0       0       0       0       0       0       0       0       0       0       
      +0       0       0       0       0       0       0       0       0       0       0       0       0       0       0       
      +0       0       0       0       0       0
  5653 ;;Total ram usage:        0 bytes
  5654 ;; Hardware stack levels used: 1
  5655 ;; This function calls:
  5656 ;;		Nothing
  5657 ;; This function is called by:
  5658 ;;		_UART1_Initialize
  5659 ;;		_UART1_ReceiveISR
  5660 ;; This function uses a non-reentrant model
  5661 ;;
  5662                           
  5663                           	psect	text40
  5664   011740                     __ptext40:
  5665                           	callstack 0
  5666   011740                     _UART1_DefaultFramingErrorCallback:
  5667                           	callstack 113
  5668   011740  0012               	return		;funcret
  5669   011742                     __end_of_UART1_DefaultFramingErrorCallback:
  5670                           	callstack 0
  5671                           
  5672 ;; *************** function _Timer0_OverflowISR *****************
  5673 ;; Defined at:
  5674 ;;		line 106 in file "mcc_generated_files/timer/src/tmr0.c"
  5675 ;; Parameters:    Size  Location     Type
  5676 ;;		None
  5677 ;; Auto vars:     Size  Location     Type
  5678 ;;		None
  5679 ;; Return value:  Size  Location     Type
  5680 ;;                  1    wreg      void 
  5681 ;; Registers used:
  5682 ;;		wreg, fsr1l, fsr1h, fsr2l, fsr2h, status,2, status,0, pcl, pclath, pclatu, tosl, prodl, prodh, cstack
  5683 ;; Tracked objects:
  5684 ;;		On entry : 0/0
  5685 ;;		On exit  : 0/0
  5686 ;;		Unchanged: 0/0
  5687 ;; Data sizes:     COMRAM   BANK5   BANK6   BANK7   BANK8   BANK9  BANK10  BANK11  BANK12  BANK13  BANK14  BANK15  BANK1
      +6  BANK17  BANK18  BANK19  BANK20  BANK21  BANK22  BANK23  BANK24  BANK25  BANK26  BANK27  BANK28  BANK29  BANK30  BANK3
      +1  BANK32  BANK33  BANK34  BANK35  BANK36
  5688 ;;      Params:         0       0       0       0       0       0       0       0       0       0       0       0       
      +0       0       0       0       0       0       0       0       0       0       0       0       0       0       0       
      +0       0       0       0       0       0
  5689 ;;      Locals:         0       0       0       0       0       0       0       0       0       0       0       0       
      +0       0       0       0       0       0       0       0       0       0       0       0       0       0       0       
      +0       0       0       0       0       0
  5690 ;;      Temps:          0       0       0       0       0       0       0       0       0       0       0       0       
      +0       0       0       0       0       0       0       0       0       0       0       0       0       0       0       
      +0       0       0       0       0       0
  5691 ;;      Totals:         0       0       0       0       0       0       0       0       0       0       0       0       
      +0       0       0       0       0       0       0       0       0       0       0       0       0       0       0       
      +0       0       0       0       0       0
  5692 ;;Total ram usage:        0 bytes
  5693 ;; Hardware stack levels used: 1
  5694 ;; Hardware stack levels required when called: 1
  5695 ;; This function calls:
  5696 ;;		Absolute function
  5697 ;;		_Task_synch
  5698 ;;		_Timer0_DefaultOverflowCallback
  5699 ;; This function is called by:
  5700 ;;		_INTERRUPT_InterruptManager
  5701 ;; This function uses a non-reentrant model
  5702 ;;
  5703                           
  5704                           	psect	text41
  5705   011358                     __ptext41:
  5706                           	callstack 0
  5707   011358                     _Timer0_OverflowISR:
  5708                           	callstack 113
  5709   011358                     
  5710                           ;mcc_generated_files/timer/src/tmr0.c: 109:     PIR3bits.TMR0IF = 0;
  5711   011358  9EB1               	bcf	177,7,c	;volatile
  5712   01135A                     
  5713                           ;mcc_generated_files/timer/src/tmr0.c: 110:     if(Timer0_OverflowCallback)
  5714   01135A  0105               	movlb	5	; () banked
  5715   01135C  51AC               	movf	_Timer0_OverflowCallback& (0+255),w,b
  5716   01135E  11AD               	iorwf	(_Timer0_OverflowCallback+1)& (0+255),w,b
  5717   011360  11AE               	iorwf	(_Timer0_OverflowCallback+2)& (0+255),w,b
  5718   011362  B4D8               	btfsc	status,2,c
  5719   011364  EFB6  F089         	goto	i2u213_41
  5720   011368  EFB8  F089         	goto	i2u213_40
  5721   01136C                     i2u213_41:
  5722   01136C  EFC5  F089         	goto	i2l717
  5723   011370                     i2u213_40:
  5724   011370                     
  5725                           ; BSR set to: 5
  5726                           ;mcc_generated_files/timer/src/tmr0.c: 111:     {;mcc_generated_files/timer/src/tmr0.c: 
      +                          112:         Timer0_OverflowCallback();
  5727   011370  D802               	call	i2u214_48
  5728   011372  EFC5  F089         	goto	i2u214_49
  5729   011376                     i2u214_48:
  5730   011376  0005               	push	
  5731   011378  6EFA               	movwf	pclath,c
  5732   01137A  51AC               	movf	_Timer0_OverflowCallback& (0+255),w,b
  5733   01137C  6EFD               	movwf	tosl,c
  5734   01137E  51AD               	movf	(_Timer0_OverflowCallback+1)& (0+255),w,b
  5735   011380  6EFE               	movwf	tosh,c
  5736   011382  51AE               	movf	(_Timer0_OverflowCallback+2)& (0+255),w,b
  5737   011384  6EFF               	movwf	tosu,c
  5738   011386  50FA               	movf	pclath,w,c
  5739   011388  0012               	return		;indir
  5740   01138A                     i2u214_49:
  5741   01138A                     i2l717:
  5742   01138A  0012               	return		;funcret
  5743   01138C                     __end_of_Timer0_OverflowISR:
  5744                           	callstack 0
  5745                           
  5746 ;; *************** function _Task_synch *****************
  5747 ;; Defined at:
  5748 ;;		line 32 in file "tasks.c"
  5749 ;; Parameters:    Size  Location     Type
  5750 ;;		None
  5751 ;; Auto vars:     Size  Location     Type
  5752 ;;  i               1    3[COMRAM] unsigned char 
  5753 ;; Return value:  Size  Location     Type
  5754 ;;                  1    wreg      void 
  5755 ;; Registers used:
  5756 ;;		wreg, fsr1l, fsr1h, fsr2l, fsr2h, status,2, status,0, prodl, prodh
  5757 ;; Tracked objects:
  5758 ;;		On entry : 0/0
  5759 ;;		On exit  : 0/0
  5760 ;;		Unchanged: 0/0
  5761 ;; Data sizes:     COMRAM   BANK5   BANK6   BANK7   BANK8   BANK9  BANK10  BANK11  BANK12  BANK13  BANK14  BANK15  BANK1
      +6  BANK17  BANK18  BANK19  BANK20  BANK21  BANK22  BANK23  BANK24  BANK25  BANK26  BANK27  BANK28  BANK29  BANK30  BANK3
      +1  BANK32  BANK33  BANK34  BANK35  BANK36
  5762 ;;      Params:         0       0       0       0       0       0       0       0       0       0       0       0       
      +0       0       0       0       0       0       0       0       0       0       0       0       0       0       0       
      +0       0       0       0       0       0
  5763 ;;      Locals:         1       0       0       0       0       0       0       0       0       0       0       0       
      +0       0       0       0       0       0       0       0       0       0       0       0       0       0       0       
      +0       0       0       0       0       0
  5764 ;;      Temps:          3       0       0       0       0       0       0       0       0       0       0       0       
      +0       0       0       0       0       0       0       0       0       0       0       0       0       0       0       
      +0       0       0       0       0       0
  5765 ;;      Totals:         4       0       0       0       0       0       0       0       0       0       0       0       
      +0       0       0       0       0       0       0       0       0       0       0       0       0       0       0       
      +0       0       0       0       0       0
  5766 ;;Total ram usage:        4 bytes
  5767 ;; Hardware stack levels used: 1
  5768 ;; This function calls:
  5769 ;;		Nothing
  5770 ;; This function is called by:
  5771 ;;		_main
  5772 ;;		_Timer0_OverflowISR
  5773 ;; This function uses a non-reentrant model
  5774 ;;
  5775                           
  5776                           	psect	text42
  5777   010C2A                     __ptext42:
  5778                           	callstack 0
  5779   010C2A                     _Task_synch:
  5780                           	callstack 113
  5781   010C2A                     
  5782                           ;tasks.c: 34:     for(uint8_t i = 0; i<10; i++)
  5783   010C2A  0E00               	movlw	0
  5784   010C2C  6E04               	movwf	Task_synch@i^(0+1280),c
  5785   010C2E                     i2l3461:
  5786                           
  5787                           ;tasks.c: 35:     {;tasks.c: 36:         if(tasks[i].taskHandler)
  5788   010C2E  5004               	movf	Task_synch@i^(0+1280),w,c
  5789   010C30  0D08               	mullw	8
  5790   010C32  0E05               	movlw	low (_tasks+5)
  5791   010C34  24F3               	addwf	243,w,c
  5792   010C36  6ED9               	movwf	fsr2l,c
  5793   010C38  0E06               	movlw	high (_tasks+5)
  5794   010C3A  20F4               	addwfc	prodh,w,c
  5795   010C3C  6EDA               	movwf	fsr2h,c
  5796   010C3E  50DE               	movf	postinc2,w,c
  5797   010C40  10DE               	iorwf	postinc2,w,c
  5798   010C42  10DE               	iorwf	postinc2,w,c
  5799   010C44  B4D8               	btfsc	status,2,c
  5800   010C46  EF27  F086         	goto	i2u194_41
  5801   010C4A  EF29  F086         	goto	i2u194_40
  5802   010C4E                     i2u194_41:
  5803   010C4E  EF74  F086         	goto	i2l3471
  5804   010C52                     i2u194_40:
  5805   010C52                     
  5806                           ;tasks.c: 37:         {;tasks.c: 38:             if(tasks[i].delay > 0) tasks[i].delay--
      +                          ;
  5807   010C52  5004               	movf	Task_synch@i^(0+1280),w,c
  5808   010C54  0D08               	mullw	8
  5809   010C56  0E00               	movlw	low _tasks
  5810   010C58  24F3               	addwf	243,w,c
  5811   010C5A  6ED9               	movwf	fsr2l,c
  5812   010C5C  0E06               	movlw	high _tasks
  5813   010C5E  20F4               	addwfc	prodh,w,c
  5814   010C60  6EDA               	movwf	fsr2h,c
  5815   010C62  50DE               	movf	postinc2,w,c
  5816   010C64  10DE               	iorwf	postinc2,w,c
  5817   010C66  B4D8               	btfsc	status,2,c
  5818   010C68  EF38  F086         	goto	i2u195_41
  5819   010C6C  EF3A  F086         	goto	i2u195_40
  5820   010C70                     i2u195_41:
  5821   010C70  EF45  F086         	goto	i2l1053
  5822   010C74                     i2u195_40:
  5823   010C74  5004               	movf	Task_synch@i^(0+1280),w,c
  5824   010C76  0D08               	mullw	8
  5825   010C78  0E00               	movlw	low _tasks
  5826   010C7A  24F3               	addwf	243,w,c
  5827   010C7C  6ED9               	movwf	fsr2l,c
  5828   010C7E  0E06               	movlw	high _tasks
  5829   010C80  20F4               	addwfc	prodh,w,c
  5830   010C82  6EDA               	movwf	fsr2h,c
  5831   010C84  06DE               	decf	postinc2,f,c
  5832   010C86  0E00               	movlw	0
  5833   010C88  5ADD               	subwfb	postdec2,f,c
  5834   010C8A                     i2l1053:
  5835                           
  5836                           ;tasks.c: 39:             if(tasks[i].delay == 0)
  5837   010C8A  5004               	movf	Task_synch@i^(0+1280),w,c
  5838   010C8C  0D08               	mullw	8
  5839   010C8E  0E00               	movlw	low _tasks
  5840   010C90  24F3               	addwf	243,w,c
  5841   010C92  6ED9               	movwf	fsr2l,c
  5842   010C94  0E06               	movlw	high _tasks
  5843   010C96  20F4               	addwfc	prodh,w,c
  5844   010C98  6EDA               	movwf	fsr2h,c
  5845   010C9A  50DE               	movf	postinc2,w,c
  5846   010C9C  10DE               	iorwf	postinc2,w,c
  5847   010C9E  A4D8               	btfss	status,2,c
  5848   010CA0  EF54  F086         	goto	i2u196_41
  5849   010CA4  EF56  F086         	goto	i2u196_40
  5850   010CA8                     i2u196_41:
  5851   010CA8  EF74  F086         	goto	i2l3471
  5852   010CAC                     i2u196_40:
  5853   010CAC                     
  5854                           ;tasks.c: 40:             {;tasks.c: 41:                 tasks[i].delay = tasks[i].reloa
      +                          d;
  5855   010CAC  5004               	movf	Task_synch@i^(0+1280),w,c
  5856   010CAE  0D08               	mullw	8
  5857   010CB0  0E02               	movlw	low (_tasks+2)
  5858   010CB2  24F3               	addwf	243,w,c
  5859   010CB4  6ED9               	movwf	fsr2l,c
  5860   010CB6  0E06               	movlw	high (_tasks+2)
  5861   010CB8  20F4               	addwfc	prodh,w,c
  5862   010CBA  6EDA               	movwf	fsr2h,c
  5863   010CBC  5004               	movf	Task_synch@i^(0+1280),w,c
  5864   010CBE  0D08               	mullw	8
  5865   010CC0  0E00               	movlw	low _tasks
  5866   010CC2  24F3               	addwf	243,w,c
  5867   010CC4  6EE1               	movwf	fsr1l,c
  5868   010CC6  0E06               	movlw	high _tasks
  5869   010CC8  20F4               	addwfc	prodh,w,c
  5870   010CCA  6EE2               	movwf	fsr1h,c
  5871   010CCC  C4DE F4E6          	movff	postinc2,postinc1
  5872   010CD0  C4DD F4E5          	movff	postdec2,postdec1
  5873   010CD4                     
  5874                           ;tasks.c: 42:                 tasks[i].trigger = 1;
  5875   010CD4  5004               	movf	Task_synch@i^(0+1280),w,c
  5876   010CD6  0D08               	mullw	8
  5877   010CD8  0E04               	movlw	low (_tasks+4)
  5878   010CDA  24F3               	addwf	243,w,c
  5879   010CDC  6ED9               	movwf	fsr2l,c
  5880   010CDE  0E06               	movlw	high (_tasks+4)
  5881   010CE0  20F4               	addwfc	prodh,w,c
  5882   010CE2  6EDA               	movwf	fsr2h,c
  5883   010CE4  0E01               	movlw	1
  5884   010CE6  6EDF               	movwf	indf2,c
  5885   010CE8                     i2l3471:
  5886                           
  5887                           ;tasks.c: 45:     }
  5888   010CE8  2A04               	incf	Task_synch@i^(0+1280),f,c
  5889   010CEA  0E09               	movlw	9
  5890   010CEC  6404               	cpfsgt	Task_synch@i^(0+1280),c
  5891   010CEE  EF7B  F086         	goto	i2u197_41
  5892   010CF2  EF7D  F086         	goto	i2u197_40
  5893   010CF6                     i2u197_41:
  5894   010CF6  EF17  F086         	goto	i2l3461
  5895   010CFA                     i2u197_40:
  5896   010CFA  0012               	return		;funcret
  5897   010CFC                     __end_of_Task_synch:
  5898                           	callstack 0
  5899                           
  5900 ;; *************** function _Timer0_DefaultOverflowCallback *****************
  5901 ;; Defined at:
  5902 ;;		line 121 in file "mcc_generated_files/timer/src/tmr0.c"
  5903 ;; Parameters:    Size  Location     Type
  5904 ;;		None
  5905 ;; Auto vars:     Size  Location     Type
  5906 ;;		None
  5907 ;; Return value:  Size  Location     Type
  5908 ;;                  1    wreg      void 
  5909 ;; Registers used:
  5910 ;;		None
  5911 ;; Tracked objects:
  5912 ;;		On entry : 0/0
  5913 ;;		On exit  : 0/0
  5914 ;;		Unchanged: 0/0
  5915 ;; Data sizes:     COMRAM   BANK5   BANK6   BANK7   BANK8   BANK9  BANK10  BANK11  BANK12  BANK13  BANK14  BANK15  BANK1
      +6  BANK17  BANK18  BANK19  BANK20  BANK21  BANK22  BANK23  BANK24  BANK25  BANK26  BANK27  BANK28  BANK29  BANK30  BANK3
      +1  BANK32  BANK33  BANK34  BANK35  BANK36
  5916 ;;      Params:         0       0       0       0       0       0       0       0       0       0       0       0       
      +0       0       0       0       0       0       0       0       0       0       0       0       0       0       0       
      +0       0       0       0       0       0
  5917 ;;      Locals:         0       0       0       0       0       0       0       0       0       0       0       0       
      +0       0       0       0       0       0       0       0       0       0       0       0       0       0       0       
      +0       0       0       0       0       0
  5918 ;;      Temps:          0       0       0       0       0       0       0       0       0       0       0       0       
      +0       0       0       0       0       0       0       0       0       0       0       0       0       0       0       
      +0       0       0       0       0       0
  5919 ;;      Totals:         0       0       0       0       0       0       0       0       0       0       0       0       
      +0       0       0       0       0       0       0       0       0       0       0       0       0       0       0       
      +0       0       0       0       0       0
  5920 ;;Total ram usage:        0 bytes
  5921 ;; Hardware stack levels used: 1
  5922 ;; This function calls:
  5923 ;;		Nothing
  5924 ;; This function is called by:
  5925 ;;		_Timer0_Initialize
  5926 ;;		_Timer0_OverflowISR
  5927 ;; This function uses a non-reentrant model
  5928 ;;
  5929                           
  5930                           	psect	text43
  5931   011742                     __ptext43:
  5932                           	callstack 0
  5933   011742                     _Timer0_DefaultOverflowCallback:
  5934                           	callstack 113
  5935   011742  0012               	return		;funcret
  5936   011744                     __end_of_Timer0_DefaultOverflowCallback:
  5937                           	callstack 0
  5938                           
  5939 ;; *************** function _PIN_MANAGER_IOC *****************
  5940 ;; Defined at:
  5941 ;;		line 150 in file "mcc_generated_files/system/src/pins.c"
  5942 ;; Parameters:    Size  Location     Type
  5943 ;;		None
  5944 ;; Auto vars:     Size  Location     Type
  5945 ;;		None
  5946 ;; Return value:  Size  Location     Type
  5947 ;;                  1    wreg      void 
  5948 ;; Registers used:
  5949 ;;		None
  5950 ;; Tracked objects:
  5951 ;;		On entry : 0/0
  5952 ;;		On exit  : 0/0
  5953 ;;		Unchanged: 0/0
  5954 ;; Data sizes:     COMRAM   BANK5   BANK6   BANK7   BANK8   BANK9  BANK10  BANK11  BANK12  BANK13  BANK14  BANK15  BANK1
      +6  BANK17  BANK18  BANK19  BANK20  BANK21  BANK22  BANK23  BANK24  BANK25  BANK26  BANK27  BANK28  BANK29  BANK30  BANK3
      +1  BANK32  BANK33  BANK34  BANK35  BANK36
  5955 ;;      Params:         0       0       0       0       0       0       0       0       0       0       0       0       
      +0       0       0       0       0       0       0       0       0       0       0       0       0       0       0       
      +0       0       0       0       0       0
  5956 ;;      Locals:         0       0       0       0       0       0       0       0       0       0       0       0       
      +0       0       0       0       0       0       0       0       0       0       0       0       0       0       0       
      +0       0       0       0       0       0
  5957 ;;      Temps:          0       0       0       0       0       0       0       0       0       0       0       0       
      +0       0       0       0       0       0       0       0       0       0       0       0       0       0       0       
      +0       0       0       0       0       0
  5958 ;;      Totals:         0       0       0       0       0       0       0       0       0       0       0       0       
      +0       0       0       0       0       0       0       0       0       0       0       0       0       0       0       
      +0       0       0       0       0       0
  5959 ;;Total ram usage:        0 bytes
  5960 ;; Hardware stack levels used: 1
  5961 ;; This function calls:
  5962 ;;		Nothing
  5963 ;; This function is called by:
  5964 ;;		_INTERRUPT_InterruptManager
  5965 ;; This function uses a non-reentrant model
  5966 ;;
  5967                           
  5968                           	psect	text44
  5969   011744                     __ptext44:
  5970                           	callstack 0
  5971   011744                     _PIN_MANAGER_IOC:
  5972                           	callstack 114
  5973   011744  0012               	return		;funcret
  5974   011746                     __end_of_PIN_MANAGER_IOC:
  5975                           	callstack 0
  5976                           
  5977 ;; *************** function _INT2_ISR *****************
  5978 ;; Defined at:
  5979 ;;		line 178 in file "mcc_generated_files/system/src/interrupt.c"
  5980 ;; Parameters:    Size  Location     Type
  5981 ;;		None
  5982 ;; Auto vars:     Size  Location     Type
  5983 ;;		None
  5984 ;; Return value:  Size  Location     Type
  5985 ;;                  1    wreg      void 
  5986 ;; Registers used:
  5987 ;;		wreg, status,2, status,0, pcl, pclath, pclatu, tosl, cstack
  5988 ;; Tracked objects:
  5989 ;;		On entry : 0/0
  5990 ;;		On exit  : 0/0
  5991 ;;		Unchanged: 0/0
  5992 ;; Data sizes:     COMRAM   BANK5   BANK6   BANK7   BANK8   BANK9  BANK10  BANK11  BANK12  BANK13  BANK14  BANK15  BANK1
      +6  BANK17  BANK18  BANK19  BANK20  BANK21  BANK22  BANK23  BANK24  BANK25  BANK26  BANK27  BANK28  BANK29  BANK30  BANK3
      +1  BANK32  BANK33  BANK34  BANK35  BANK36
  5993 ;;      Params:         0       0       0       0       0       0       0       0       0       0       0       0       
      +0       0       0       0       0       0       0       0       0       0       0       0       0       0       0       
      +0       0       0       0       0       0
  5994 ;;      Locals:         0       0       0       0       0       0       0       0       0       0       0       0       
      +0       0       0       0       0       0       0       0       0       0       0       0       0       0       0       
      +0       0       0       0       0       0
  5995 ;;      Temps:          0       0       0       0       0       0       0       0       0       0       0       0       
      +0       0       0       0       0       0       0       0       0       0       0       0       0       0       0       
      +0       0       0       0       0       0
  5996 ;;      Totals:         0       0       0       0       0       0       0       0       0       0       0       0       
      +0       0       0       0       0       0       0       0       0       0       0       0       0       0       0       
      +0       0       0       0       0       0
  5997 ;;Total ram usage:        0 bytes
  5998 ;; Hardware stack levels used: 1
  5999 ;; Hardware stack levels required when called: 2
  6000 ;; This function calls:
  6001 ;;		_INT2_CallBack
  6002 ;; This function is called by:
  6003 ;;		_INTERRUPT_InterruptManager
  6004 ;; This function uses a non-reentrant model
  6005 ;;
  6006                           
  6007                           	psect	text45
  6008   0116FE                     __ptext45:
  6009                           	callstack 0
  6010   0116FE                     _INT2_ISR:
  6011                           	callstack 112
  6012   0116FE                     
  6013                           ;mcc_generated_files/system/src/interrupt.c: 180:     (PIR10bits.INT2IF = 0);
  6014   0116FE  90B8               	bcf	184,0,c	;volatile
  6015   011700                     
  6016                           ;mcc_generated_files/system/src/interrupt.c: 183:     INT2_CallBack();
  6017   011700  ECC6  F089         	call	_INT2_CallBack	;wreg free
  6018   011704  0012               	return		;funcret
  6019   011706                     __end_of_INT2_ISR:
  6020                           	callstack 0
  6021                           
  6022 ;; *************** function _INT2_CallBack *****************
  6023 ;; Defined at:
  6024 ;;		line 187 in file "mcc_generated_files/system/src/interrupt.c"
  6025 ;; Parameters:    Size  Location     Type
  6026 ;;		None
  6027 ;; Auto vars:     Size  Location     Type
  6028 ;;		None
  6029 ;; Return value:  Size  Location     Type
  6030 ;;                  1    wreg      void 
  6031 ;; Registers used:
  6032 ;;		wreg, status,2, status,0, pcl, pclath, pclatu, tosl, cstack
  6033 ;; Tracked objects:
  6034 ;;		On entry : 0/0
  6035 ;;		On exit  : 0/0
  6036 ;;		Unchanged: 0/0
  6037 ;; Data sizes:     COMRAM   BANK5   BANK6   BANK7   BANK8   BANK9  BANK10  BANK11  BANK12  BANK13  BANK14  BANK15  BANK1
      +6  BANK17  BANK18  BANK19  BANK20  BANK21  BANK22  BANK23  BANK24  BANK25  BANK26  BANK27  BANK28  BANK29  BANK30  BANK3
      +1  BANK32  BANK33  BANK34  BANK35  BANK36
  6038 ;;      Params:         0       0       0       0       0       0       0       0       0       0       0       0       
      +0       0       0       0       0       0       0       0       0       0       0       0       0       0       0       
      +0       0       0       0       0       0
  6039 ;;      Locals:         0       0       0       0       0       0       0       0       0       0       0       0       
      +0       0       0       0       0       0       0       0       0       0       0       0       0       0       0       
      +0       0       0       0       0       0
  6040 ;;      Temps:          0       0       0       0       0       0       0       0       0       0       0       0       
      +0       0       0       0       0       0       0       0       0       0       0       0       0       0       0       
      +0       0       0       0       0       0
  6041 ;;      Totals:         0       0       0       0       0       0       0       0       0       0       0       0       
      +0       0       0       0       0       0       0       0       0       0       0       0       0       0       0       
      +0       0       0       0       0       0
  6042 ;;Total ram usage:        0 bytes
  6043 ;; Hardware stack levels used: 1
  6044 ;; Hardware stack levels required when called: 1
  6045 ;; This function calls:
  6046 ;;		Absolute function
  6047 ;;		_INT2_DefaultInterruptHandler
  6048 ;; This function is called by:
  6049 ;;		_INT2_ISR
  6050 ;; This function uses a non-reentrant model
  6051 ;;
  6052                           
  6053                           	psect	text46
  6054   01138C                     __ptext46:
  6055                           	callstack 0
  6056   01138C                     _INT2_CallBack:
  6057                           	callstack 112
  6058   01138C                     
  6059                           ;mcc_generated_files/system/src/interrupt.c: 190:     if(INT2_InterruptHandler)
  6060   01138C  0105               	movlb	5	; () banked
  6061   01138E  51AF               	movf	_INT2_InterruptHandler& (0+255),w,b
  6062   011390  11B0               	iorwf	(_INT2_InterruptHandler+1)& (0+255),w,b
  6063   011392  11B1               	iorwf	(_INT2_InterruptHandler+2)& (0+255),w,b
  6064   011394  B4D8               	btfsc	status,2,c
  6065   011396  EFCF  F089         	goto	i2u191_41
  6066   01139A  EFD1  F089         	goto	i2u191_40
  6067   01139E                     i2u191_41:
  6068   01139E  EFDE  F089         	goto	i2l481
  6069   0113A2                     i2u191_40:
  6070   0113A2                     
  6071                           ; BSR set to: 5
  6072                           ;mcc_generated_files/system/src/interrupt.c: 191:     {;mcc_generated_files/system/src/i
      +                          nterrupt.c: 192:         INT2_InterruptHandler();
  6073   0113A2  D802               	call	i2u192_48
  6074   0113A4  EFDE  F089         	goto	i2u192_49
  6075   0113A8                     i2u192_48:
  6076   0113A8  0005               	push	
  6077   0113AA  6EFA               	movwf	pclath,c
  6078   0113AC  51AF               	movf	_INT2_InterruptHandler& (0+255),w,b
  6079   0113AE  6EFD               	movwf	tosl,c
  6080   0113B0  51B0               	movf	(_INT2_InterruptHandler+1)& (0+255),w,b
  6081   0113B2  6EFE               	movwf	tosh,c
  6082   0113B4  51B1               	movf	(_INT2_InterruptHandler+2)& (0+255),w,b
  6083   0113B6  6EFF               	movwf	tosu,c
  6084   0113B8  50FA               	movf	pclath,w,c
  6085   0113BA  0012               	return		;indir
  6086   0113BC                     i2u192_49:
  6087   0113BC                     i2l481:
  6088   0113BC  0012               	return		;funcret
  6089   0113BE                     __end_of_INT2_CallBack:
  6090                           	callstack 0
  6091                           
  6092 ;; *************** function _INT2_DefaultInterruptHandler *****************
  6093 ;; Defined at:
  6094 ;;		line 200 in file "mcc_generated_files/system/src/interrupt.c"
  6095 ;; Parameters:    Size  Location     Type
  6096 ;;		None
  6097 ;; Auto vars:     Size  Location     Type
  6098 ;;		None
  6099 ;; Return value:  Size  Location     Type
  6100 ;;                  1    wreg      void 
  6101 ;; Registers used:
  6102 ;;		None
  6103 ;; Tracked objects:
  6104 ;;		On entry : 0/0
  6105 ;;		On exit  : 0/0
  6106 ;;		Unchanged: 0/0
  6107 ;; Data sizes:     COMRAM   BANK5   BANK6   BANK7   BANK8   BANK9  BANK10  BANK11  BANK12  BANK13  BANK14  BANK15  BANK1
      +6  BANK17  BANK18  BANK19  BANK20  BANK21  BANK22  BANK23  BANK24  BANK25  BANK26  BANK27  BANK28  BANK29  BANK30  BANK3
      +1  BANK32  BANK33  BANK34  BANK35  BANK36
  6108 ;;      Params:         0       0       0       0       0       0       0       0       0       0       0       0       
      +0       0       0       0       0       0       0       0       0       0       0       0       0       0       0       
      +0       0       0       0       0       0
  6109 ;;      Locals:         0       0       0       0       0       0       0       0       0       0       0       0       
      +0       0       0       0       0       0       0       0       0       0       0       0       0       0       0       
      +0       0       0       0       0       0
  6110 ;;      Temps:          0       0       0       0       0       0       0       0       0       0       0       0       
      +0       0       0       0       0       0       0       0       0       0       0       0       0       0       0       
      +0       0       0       0       0       0
  6111 ;;      Totals:         0       0       0       0       0       0       0       0       0       0       0       0       
      +0       0       0       0       0       0       0       0       0       0       0       0       0       0       0       
      +0       0       0       0       0       0
  6112 ;;Total ram usage:        0 bytes
  6113 ;; Hardware stack levels used: 1
  6114 ;; This function calls:
  6115 ;;		Nothing
  6116 ;; This function is called by:
  6117 ;;		_INTERRUPT_Initialize
  6118 ;;		_INT2_CallBack
  6119 ;; This function uses a non-reentrant model
  6120 ;;
  6121                           
  6122                           	psect	text47
  6123   011746                     __ptext47:
  6124                           	callstack 0
  6125   011746                     _INT2_DefaultInterruptHandler:
  6126                           	callstack 112
  6127   011746  0012               	return		;funcret
  6128   011748                     __end_of_INT2_DefaultInterruptHandler:
  6129                           	callstack 0
  6130                           
  6131 ;; *************** function _I2C1_TX_ISR *****************
  6132 ;; Defined at:
  6133 ;;		line 294 in file "mcc_generated_files/i2c_host/src/i2c1.c"
  6134 ;; Parameters:    Size  Location     Type
  6135 ;;		None
  6136 ;; Auto vars:     Size  Location     Type
  6137 ;;		None
  6138 ;; Return value:  Size  Location     Type
  6139 ;;                  1    wreg      void 
  6140 ;; Registers used:
  6141 ;;		wreg, fsr2l, fsr2h, status,2, status,0, cstack
  6142 ;; Tracked objects:
  6143 ;;		On entry : 0/0
  6144 ;;		On exit  : 0/0
  6145 ;;		Unchanged: 0/0
  6146 ;; Data sizes:     COMRAM   BANK5   BANK6   BANK7   BANK8   BANK9  BANK10  BANK11  BANK12  BANK13  BANK14  BANK15  BANK1
      +6  BANK17  BANK18  BANK19  BANK20  BANK21  BANK22  BANK23  BANK24  BANK25  BANK26  BANK27  BANK28  BANK29  BANK30  BANK3
      +1  BANK32  BANK33  BANK34  BANK35  BANK36
  6147 ;;      Params:         0       0       0       0       0       0       0       0       0       0       0       0       
      +0       0       0       0       0       0       0       0       0       0       0       0       0       0       0       
      +0       0       0       0       0       0
  6148 ;;      Locals:         0       0       0       0       0       0       0       0       0       0       0       0       
      +0       0       0       0       0       0       0       0       0       0       0       0       0       0       0       
      +0       0       0       0       0       0
  6149 ;;      Temps:          0       0       0       0       0       0       0       0       0       0       0       0       
      +0       0       0       0       0       0       0       0       0       0       0       0       0       0       0       
      +0       0       0       0       0       0
  6150 ;;      Totals:         0       0       0       0       0       0       0       0       0       0       0       0       
      +0       0       0       0       0       0       0       0       0       0       0       0       0       0       0       
      +0       0       0       0       0       0
  6151 ;;Total ram usage:        0 bytes
  6152 ;; Hardware stack levels used: 1
  6153 ;; Hardware stack levels required when called: 1
  6154 ;; This function calls:
  6155 ;;		_I2C1_DataTransmit
  6156 ;; This function is called by:
  6157 ;;		_INTERRUPT_InterruptManager
  6158 ;; This function uses a non-reentrant model
  6159 ;;
  6160                           
  6161                           	psect	text48
  6162   0115DC                     __ptext48:
  6163                           	callstack 0
  6164   0115DC                     _I2C1_TX_ISR:
  6165                           	callstack 113
  6166   0115DC                     
  6167                           ;mcc_generated_files/i2c_host/src/i2c1.c: 296:     I2C1_DataTransmit(*i2c1Status.writePt
      +                          r++);
  6168   0115DC  C593  F4D9         	movff	_i2c1Status+3,fsr2l	;volatile
  6169   0115E0  C594  F4DA         	movff	_i2c1Status+4,fsr2h	;volatile
  6170   0115E4  0105               	movlb	5	; () banked
  6171   0115E6  4B93               	infsnz	(_i2c1Status+3)& (0+255),f,b	;volatile
  6172   0115E8  2B94               	incf	(_i2c1Status+4)& (0+255),f,b	;volatile
  6173   0115EA  50DF               	movf	indf2,w,c
  6174   0115EC  EC87  F08B         	call	_I2C1_DataTransmit
  6175   0115F0  0012               	return		;funcret
  6176   0115F2                     __end_of_I2C1_TX_ISR:
  6177                           	callstack 0
  6178                           
  6179 ;; *************** function _I2C1_RX_ISR *****************
  6180 ;; Defined at:
  6181 ;;		line 289 in file "mcc_generated_files/i2c_host/src/i2c1.c"
  6182 ;; Parameters:    Size  Location     Type
  6183 ;;		None
  6184 ;; Auto vars:     Size  Location     Type
  6185 ;;		None
  6186 ;; Return value:  Size  Location     Type
  6187 ;;                  1    wreg      void 
  6188 ;; Registers used:
  6189 ;;		wreg, fsr2l, fsr2h, status,2, status,0, cstack
  6190 ;; Tracked objects:
  6191 ;;		On entry : 0/0
  6192 ;;		On exit  : 0/0
  6193 ;;		Unchanged: 0/0
  6194 ;; Data sizes:     COMRAM   BANK5   BANK6   BANK7   BANK8   BANK9  BANK10  BANK11  BANK12  BANK13  BANK14  BANK15  BANK1
      +6  BANK17  BANK18  BANK19  BANK20  BANK21  BANK22  BANK23  BANK24  BANK25  BANK26  BANK27  BANK28  BANK29  BANK30  BANK3
      +1  BANK32  BANK33  BANK34  BANK35  BANK36
  6195 ;;      Params:         0       0       0       0       0       0       0       0       0       0       0       0       
      +0       0       0       0       0       0       0       0       0       0       0       0       0       0       0       
      +0       0       0       0       0       0
  6196 ;;      Locals:         0       0       0       0       0       0       0       0       0       0       0       0       
      +0       0       0       0       0       0       0       0       0       0       0       0       0       0       0       
      +0       0       0       0       0       0
  6197 ;;      Temps:          0       0       0       0       0       0       0       0       0       0       0       0       
      +0       0       0       0       0       0       0       0       0       0       0       0       0       0       0       
      +0       0       0       0       0       0
  6198 ;;      Totals:         0       0       0       0       0       0       0       0       0       0       0       0       
      +0       0       0       0       0       0       0       0       0       0       0       0       0       0       0       
      +0       0       0       0       0       0
  6199 ;;Total ram usage:        0 bytes
  6200 ;; Hardware stack levels used: 1
  6201 ;; Hardware stack levels required when called: 1
  6202 ;; This function calls:
  6203 ;;		_I2C1_DataReceive
  6204 ;; This function is called by:
  6205 ;;		_INTERRUPT_InterruptManager
  6206 ;; This function uses a non-reentrant model
  6207 ;;
  6208                           
  6209                           	psect	text49
  6210   0115F2                     __ptext49:
  6211                           	callstack 0
  6212   0115F2                     _I2C1_RX_ISR:
  6213                           	callstack 113
  6214   0115F2                     
  6215                           ;mcc_generated_files/i2c_host/src/i2c1.c: 291:     *i2c1Status.readPtr++ = I2C1_DataRece
      +                          ive();
  6216   0115F2  EC93  F08B         	call	_I2C1_DataReceive	;wreg free
  6217   0115F6  C597  F4D9         	movff	_i2c1Status+7,fsr2l	;volatile
  6218   0115FA  C598  F4DA         	movff	_i2c1Status+8,fsr2h	;volatile
  6219   0115FE  6EDF               	movwf	indf2,c
  6220   011600  0105               	movlb	5	; () banked
  6221   011602  4B97               	infsnz	(_i2c1Status+7)& (0+255),f,b	;volatile
  6222   011604  2B98               	incf	(_i2c1Status+8)& (0+255),f,b	;volatile
  6223   011606                     
  6224                           ; BSR set to: 5
  6225   011606  0012               	return		;funcret
  6226   011608                     __end_of_I2C1_RX_ISR:
  6227                           	callstack 0
  6228                           
  6229 ;; *************** function _I2C1_DataReceive *****************
  6230 ;; Defined at:
  6231 ;;		line 362 in file "mcc_generated_files/i2c_host/src/i2c1.c"
  6232 ;; Parameters:    Size  Location     Type
  6233 ;;		None
  6234 ;; Auto vars:     Size  Location     Type
  6235 ;;		None
  6236 ;; Return value:  Size  Location     Type
  6237 ;;                  1    wreg      unsigned char 
  6238 ;; Registers used:
  6239 ;;		wreg, status,2
  6240 ;; Tracked objects:
  6241 ;;		On entry : 0/0
  6242 ;;		On exit  : 0/0
  6243 ;;		Unchanged: 0/0
  6244 ;; Data sizes:     COMRAM   BANK5   BANK6   BANK7   BANK8   BANK9  BANK10  BANK11  BANK12  BANK13  BANK14  BANK15  BANK1
      +6  BANK17  BANK18  BANK19  BANK20  BANK21  BANK22  BANK23  BANK24  BANK25  BANK26  BANK27  BANK28  BANK29  BANK30  BANK3
      +1  BANK32  BANK33  BANK34  BANK35  BANK36
  6245 ;;      Params:         0       0       0       0       0       0       0       0       0       0       0       0       
      +0       0       0       0       0       0       0       0       0       0       0       0       0       0       0       
      +0       0       0       0       0       0
  6246 ;;      Locals:         0       0       0       0       0       0       0       0       0       0       0       0       
      +0       0       0       0       0       0       0       0       0       0       0       0       0       0       0       
      +0       0       0       0       0       0
  6247 ;;      Temps:          0       0       0       0       0       0       0       0       0       0       0       0       
      +0       0       0       0       0       0       0       0       0       0       0       0       0       0       0       
      +0       0       0       0       0       0
  6248 ;;      Totals:         0       0       0       0       0       0       0       0       0       0       0       0       
      +0       0       0       0       0       0       0       0       0       0       0       0       0       0       0       
      +0       0       0       0       0       0
  6249 ;;Total ram usage:        0 bytes
  6250 ;; Hardware stack levels used: 1
  6251 ;; This function calls:
  6252 ;;		Nothing
  6253 ;; This function is called by:
  6254 ;;		_I2C1_RX_ISR
  6255 ;; This function uses a non-reentrant model
  6256 ;;
  6257                           
  6258                           	psect	text50
  6259   011726                     __ptext50:
  6260                           	callstack 0
  6261   011726                     _I2C1_DataReceive:
  6262                           	callstack 113
  6263   011726                     
  6264                           ;mcc_generated_files/i2c_host/src/i2c1.c: 364:     return I2C1RXB;
  6265   011726  0102               	movlb	2	; () banked
  6266   011728  518B               	movf	139,w,b	;volatile
  6267   01172A                     
  6268                           ; BSR set to: 2
  6269   01172A  0012               	return		;funcret
  6270   01172C                     __end_of_I2C1_DataReceive:
  6271                           	callstack 0
  6272                           
  6273 ;; *************** function _I2C1_ISR *****************
  6274 ;; Defined at:
  6275 ;;		line 224 in file "mcc_generated_files/i2c_host/src/i2c1.c"
  6276 ;; Parameters:    Size  Location     Type
  6277 ;;		None
  6278 ;; Auto vars:     Size  Location     Type
  6279 ;;		None
  6280 ;; Return value:  Size  Location     Type
  6281 ;;                  1    wreg      void 
  6282 ;; Registers used:
  6283 ;;		wreg, status,2, status,0, cstack
  6284 ;; Tracked objects:
  6285 ;;		On entry : 0/0
  6286 ;;		On exit  : 0/0
  6287 ;;		Unchanged: 0/0
  6288 ;; Data sizes:     COMRAM   BANK5   BANK6   BANK7   BANK8   BANK9  BANK10  BANK11  BANK12  BANK13  BANK14  BANK15  BANK1
      +6  BANK17  BANK18  BANK19  BANK20  BANK21  BANK22  BANK23  BANK24  BANK25  BANK26  BANK27  BANK28  BANK29  BANK30  BANK3
      +1  BANK32  BANK33  BANK34  BANK35  BANK36
  6289 ;;      Params:         0       0       0       0       0       0       0       0       0       0       0       0       
      +0       0       0       0       0       0       0       0       0       0       0       0       0       0       0       
      +0       0       0       0       0       0
  6290 ;;      Locals:         0       0       0       0       0       0       0       0       0       0       0       0       
      +0       0       0       0       0       0       0       0       0       0       0       0       0       0       0       
      +0       0       0       0       0       0
  6291 ;;      Temps:          0       0       0       0       0       0       0       0       0       0       0       0       
      +0       0       0       0       0       0       0       0       0       0       0       0       0       0       0       
      +0       0       0       0       0       0
  6292 ;;      Totals:         0       0       0       0       0       0       0       0       0       0       0       0       
      +0       0       0       0       0       0       0       0       0       0       0       0       0       0       0       
      +0       0       0       0       0       0
  6293 ;;Total ram usage:        0 bytes
  6294 ;; Hardware stack levels used: 1
  6295 ;; Hardware stack levels required when called: 2
  6296 ;; This function calls:
  6297 ;;		_I2C1_Close
  6298 ;;		_I2C1_ReadStart
  6299 ;;		_I2C1_RestartDisable
  6300 ;;		_I2C1_StopSend
  6301 ;; This function is called by:
  6302 ;;		_INTERRUPT_InterruptManager
  6303 ;; This function uses a non-reentrant model
  6304 ;;
  6305                           
  6306                           	psect	text51
  6307   010EF4                     __ptext51:
  6308                           	callstack 0
  6309   010EF4                     _I2C1_ISR:
  6310                           	callstack 112
  6311   010EF4                     
  6312                           ;mcc_generated_files/i2c_host/src/i2c1.c: 226:     if (I2C1PIEbits.PCIE && I2C1PIRbits.P
      +                          CIF)
  6313   010EF4  0102               	movlb	2	; () banked
  6314   010EF6  A59B               	btfss	155,2,b	;volatile
  6315   010EF8  EF80  F087         	goto	i2u198_41
  6316   010EFC  EF82  F087         	goto	i2u198_40
  6317   010F00                     i2u198_41:
  6318   010F00  EF8D  F087         	goto	i2l149
  6319   010F04                     i2u198_40:
  6320   010F04                     
  6321                           ; BSR set to: 2
  6322   010F04  A59A               	btfss	154,2,b	;volatile
  6323   010F06  EF87  F087         	goto	i2u199_41
  6324   010F0A  EF89  F087         	goto	i2u199_40
  6325   010F0E                     i2u199_41:
  6326   010F0E  EF8D  F087         	goto	i2l149
  6327   010F12                     i2u199_40:
  6328   010F12                     i2l3479:
  6329                           
  6330                           ;mcc_generated_files/i2c_host/src/i2c1.c: 227:     {;mcc_generated_files/i2c_host/src/i2
      +                          c1.c: 228:         I2C1_Close();
  6331   010F12  EC09  F08A         	call	_I2C1_Close	;wreg free
  6332                           
  6333                           ;mcc_generated_files/i2c_host/src/i2c1.c: 229:     }
  6334   010F16  EFC3  F087         	goto	i2l156
  6335   010F1A                     i2l149:
  6336                           
  6337                           ; BSR set to: 2
  6338   010F1A  AF9B               	btfss	155,7,b	;volatile
  6339   010F1C  EF92  F087         	goto	i2u200_41
  6340   010F20  EF94  F087         	goto	i2u200_40
  6341   010F24                     i2u200_41:
  6342   010F24  EFB1  F087         	goto	i2l151
  6343   010F28                     i2u200_40:
  6344   010F28                     
  6345                           ; BSR set to: 2
  6346   010F28  AF9A               	btfss	154,7,b	;volatile
  6347   010F2A  EF99  F087         	goto	i2u201_41
  6348   010F2E  EF9B  F087         	goto	i2u201_40
  6349   010F32                     i2u201_41:
  6350   010F32  EFB1  F087         	goto	i2l151
  6351   010F36                     i2u201_40:
  6352   010F36                     
  6353                           ; BSR set to: 2
  6354                           ;mcc_generated_files/i2c_host/src/i2c1.c: 231:     {;mcc_generated_files/i2c_host/src/i2
      +                          c1.c: 233:         if (i2c1Status.switchToRead)
  6355   010F36  0105               	movlb	5	; () banked
  6356   010F38  519B               	movf	(_i2c1Status+11)& (0+255),w,b	;volatile
  6357   010F3A  B4D8               	btfsc	status,2,c
  6358   010F3C  EFA2  F087         	goto	i2u202_41
  6359   010F40  EFA4  F087         	goto	i2u202_40
  6360   010F44                     i2u202_41:
  6361   010F44  EFAD  F087         	goto	i2l3493
  6362   010F48                     i2u202_40:
  6363   010F48                     
  6364                           ; BSR set to: 5
  6365                           ;mcc_generated_files/i2c_host/src/i2c1.c: 234:         {;mcc_generated_files/i2c_host/sr
      +                          c/i2c1.c: 235:             i2c1Status.switchToRead = 0;
  6366   010F48  0E00               	movlw	0
  6367   010F4A  6F9B               	movwf	(_i2c1Status+11)& (0+255),b	;volatile
  6368   010F4C                     
  6369                           ; BSR set to: 5
  6370                           ;mcc_generated_files/i2c_host/src/i2c1.c: 236:             I2C1PIRbits.SCIF = 0;
  6371   010F4C  0102               	movlb	2	; () banked
  6372   010F4E  919A               	bcf	154,0,b	;volatile
  6373   010F50                     
  6374                           ; BSR set to: 2
  6375                           ;mcc_generated_files/i2c_host/src/i2c1.c: 237:             I2C1PIRbits.CNTIF = 0;
  6376   010F50  9F9A               	bcf	154,7,b	;volatile
  6377   010F52                     
  6378                           ; BSR set to: 2
  6379                           ;mcc_generated_files/i2c_host/src/i2c1.c: 238:             I2C1_ReadStart();
  6380   010F52  ECF4  F089         	call	_I2C1_ReadStart	;wreg free
  6381                           
  6382                           ;mcc_generated_files/i2c_host/src/i2c1.c: 239:         }
  6383   010F56  EFC3  F087         	goto	i2l156
  6384   010F5A                     i2l3493:
  6385                           
  6386                           ; BSR set to: 5
  6387                           ;mcc_generated_files/i2c_host/src/i2c1.c: 241:         {;mcc_generated_files/i2c_host/sr
      +                          c/i2c1.c: 242:             I2C1_StopSend();
  6388   010F5A  EC46  F08A         	call	_I2C1_StopSend	;wreg free
  6389   010F5E  EF89  F087         	goto	i2l3479
  6390   010F62                     i2l151:
  6391                           
  6392                           ; BSR set to: 2
  6393   010F62  A39B               	btfss	155,1,b	;volatile
  6394   010F64  EFB6  F087         	goto	i2u203_41
  6395   010F68  EFB8  F087         	goto	i2u203_40
  6396   010F6C                     i2u203_41:
  6397   010F6C  EFC3  F087         	goto	i2l156
  6398   010F70                     i2u203_40:
  6399   010F70                     
  6400                           ; BSR set to: 2
  6401   010F70  A39A               	btfss	154,1,b	;volatile
  6402   010F72  EFBD  F087         	goto	i2u204_41
  6403   010F76  EFBF  F087         	goto	i2u204_40
  6404   010F7A                     i2u204_41:
  6405   010F7A  EFC3  F087         	goto	i2l156
  6406   010F7E                     i2u204_40:
  6407   010F7E                     
  6408                           ; BSR set to: 2
  6409                           ;mcc_generated_files/i2c_host/src/i2c1.c: 247:     {;mcc_generated_files/i2c_host/src/i2
      +                          c1.c: 248:         I2C1_RestartDisable();
  6410   010F7E  EC99  F08B         	call	_I2C1_RestartDisable	;wreg free
  6411   010F82                     
  6412                           ;mcc_generated_files/i2c_host/src/i2c1.c: 249:         I2C1PIRbits.RSCIF = 0;
  6413   010F82  0102               	movlb	2	; () banked
  6414   010F84  939A               	bcf	154,1,b	;volatile
  6415   010F86                     i2l156:
  6416   010F86  0012               	return		;funcret
  6417   010F88                     __end_of_I2C1_ISR:
  6418                           	callstack 0
  6419                           
  6420 ;; *************** function _I2C1_ReadStart *****************
  6421 ;; Defined at:
  6422 ;;		line 302 in file "mcc_generated_files/i2c_host/src/i2c1.c"
  6423 ;; Parameters:    Size  Location     Type
  6424 ;;		None
  6425 ;; Auto vars:     Size  Location     Type
  6426 ;;		None
  6427 ;; Return value:  Size  Location     Type
  6428 ;;                  1    wreg      void 
  6429 ;; Registers used:
  6430 ;;		wreg, status,2, status,0, cstack
  6431 ;; Tracked objects:
  6432 ;;		On entry : 0/0
  6433 ;;		On exit  : 0/0
  6434 ;;		Unchanged: 0/0
  6435 ;; Data sizes:     COMRAM   BANK5   BANK6   BANK7   BANK8   BANK9  BANK10  BANK11  BANK12  BANK13  BANK14  BANK15  BANK1
      +6  BANK17  BANK18  BANK19  BANK20  BANK21  BANK22  BANK23  BANK24  BANK25  BANK26  BANK27  BANK28  BANK29  BANK30  BANK3
      +1  BANK32  BANK33  BANK34  BANK35  BANK36
  6436 ;;      Params:         0       0       0       0       0       0       0       0       0       0       0       0       
      +0       0       0       0       0       0       0       0       0       0       0       0       0       0       0       
      +0       0       0       0       0       0
  6437 ;;      Locals:         0       0       0       0       0       0       0       0       0       0       0       0       
      +0       0       0       0       0       0       0       0       0       0       0       0       0       0       0       
      +0       0       0       0       0       0
  6438 ;;      Temps:          0       0       0       0       0       0       0       0       0       0       0       0       
      +0       0       0       0       0       0       0       0       0       0       0       0       0       0       0       
      +0       0       0       0       0       0
  6439 ;;      Totals:         0       0       0       0       0       0       0       0       0       0       0       0       
      +0       0       0       0       0       0       0       0       0       0       0       0       0       0       0       
      +0       0       0       0       0       0
  6440 ;;Total ram usage:        0 bytes
  6441 ;; Hardware stack levels used: 1
  6442 ;; Hardware stack levels required when called: 1
  6443 ;; This function calls:
  6444 ;;		_I2C1_AddrTransmit
  6445 ;;		_I2C1_CounterSet
  6446 ;;		_I2C1_StartSend
  6447 ;; This function is called by:
  6448 ;;		_I2C1_ISR
  6449 ;;		_I2C1_Read
  6450 ;; This function uses a non-reentrant model
  6451 ;;
  6452                           
  6453                           	psect	text52
  6454   0113E8                     __ptext52:
  6455                           	callstack 0
  6456   0113E8                     _I2C1_ReadStart:
  6457                           	callstack 112
  6458   0113E8                     
  6459                           ;mcc_generated_files/i2c_host/src/i2c1.c: 304:     if (i2c1Status.readLength)
  6460   0113E8  0105               	movlb	5	; () banked
  6461   0113EA  5199               	movf	(_i2c1Status+9)& (0+255),w,b	;volatile
  6462   0113EC  119A               	iorwf	(_i2c1Status+10)& (0+255),w,b	;volatile
  6463   0113EE  B4D8               	btfsc	status,2,c
  6464   0113F0  EFFC  F089         	goto	i2u183_41
  6465   0113F4  EFFE  F089         	goto	i2u183_40
  6466   0113F8                     i2u183_41:
  6467   0113F8  EF01  F08A         	goto	i2l3271
  6468   0113FC                     i2u183_40:
  6469   0113FC                     
  6470                           ; BSR set to: 5
  6471                           ;mcc_generated_files/i2c_host/src/i2c1.c: 305:     {;mcc_generated_files/i2c_host/src/i2
      +                          c1.c: 306:         I2C1_CounterSet((uint8_t) i2c1Status.readLength);
  6472   0113FC  5199               	movf	(_i2c1Status+9)& (0+255),w,b	;volatile
  6473   0113FE  EC8B  F08B         	call	_I2C1_CounterSet
  6474   011402                     i2l3271:
  6475                           
  6476                           ;mcc_generated_files/i2c_host/src/i2c1.c: 309:     I2C1_AddrTransmit((uint8_t) (i2c1Stat
      +                          us.address << 1 | 1));
  6477   011402  80D8               	bsf	status,0,c
  6478   011404  0105               	movlb	5	; () banked
  6479   011406  3591               	rlcf	(_i2c1Status+1)& (0+255),w,b	;volatile
  6480   011408  EC83  F08B         	call	_I2C1_AddrTransmit
  6481   01140C                     
  6482                           ;mcc_generated_files/i2c_host/src/i2c1.c: 310:     I2C1_StartSend();
  6483   01140C  EC96  F08B         	call	_I2C1_StartSend	;wreg free
  6484   011410  0012               	return		;funcret
  6485   011412                     __end_of_I2C1_ReadStart:
  6486                           	callstack 0
  6487                           
  6488 ;; *************** function _I2C1_StartSend *****************
  6489 ;; Defined at:
  6490 ;;		line 347 in file "mcc_generated_files/i2c_host/src/i2c1.c"
  6491 ;; Parameters:    Size  Location     Type
  6492 ;;		None
  6493 ;; Auto vars:     Size  Location     Type
  6494 ;;		None
  6495 ;; Return value:  Size  Location     Type
  6496 ;;                  1    wreg      void 
  6497 ;; Registers used:
  6498 ;;		None
  6499 ;; Tracked objects:
  6500 ;;		On entry : 0/0
  6501 ;;		On exit  : 0/0
  6502 ;;		Unchanged: 0/0
  6503 ;; Data sizes:     COMRAM   BANK5   BANK6   BANK7   BANK8   BANK9  BANK10  BANK11  BANK12  BANK13  BANK14  BANK15  BANK1
      +6  BANK17  BANK18  BANK19  BANK20  BANK21  BANK22  BANK23  BANK24  BANK25  BANK26  BANK27  BANK28  BANK29  BANK30  BANK3
      +1  BANK32  BANK33  BANK34  BANK35  BANK36
  6504 ;;      Params:         0       0       0       0       0       0       0       0       0       0       0       0       
      +0       0       0       0       0       0       0       0       0       0       0       0       0       0       0       
      +0       0       0       0       0       0
  6505 ;;      Locals:         0       0       0       0       0       0       0       0       0       0       0       0       
      +0       0       0       0       0       0       0       0       0       0       0       0       0       0       0       
      +0       0       0       0       0       0
  6506 ;;      Temps:          0       0       0       0       0       0       0       0       0       0       0       0       
      +0       0       0       0       0       0       0       0       0       0       0       0       0       0       0       
      +0       0       0       0       0       0
  6507 ;;      Totals:         0       0       0       0       0       0       0       0       0       0       0       0       
      +0       0       0       0       0       0       0       0       0       0       0       0       0       0       0       
      +0       0       0       0       0       0
  6508 ;;Total ram usage:        0 bytes
  6509 ;; Hardware stack levels used: 1
  6510 ;; This function calls:
  6511 ;;		Nothing
  6512 ;; This function is called by:
  6513 ;;		_I2C1_ReadStart
  6514 ;;		_I2C1_WriteStart
  6515 ;; This function uses a non-reentrant model
  6516 ;;
  6517                           
  6518                           	psect	text53
  6519   01172C                     __ptext53:
  6520                           	callstack 0
  6521   01172C                     _I2C1_StartSend:
  6522                           	callstack 112
  6523   01172C                     
  6524                           ;mcc_generated_files/i2c_host/src/i2c1.c: 349:     I2C1CON0bits.S = 1;
  6525   01172C  0102               	movlb	2	; () banked
  6526   01172E  8B94               	bsf	148,5,b	;volatile
  6527   011730                     
  6528                           ; BSR set to: 2
  6529   011730  0012               	return		;funcret
  6530   011732                     __end_of_I2C1_StartSend:
  6531                           	callstack 0
  6532                           
  6533 ;; *************** function _I2C1_AddrTransmit *****************
  6534 ;; Defined at:
  6535 ;;		line 352 in file "mcc_generated_files/i2c_host/src/i2c1.c"
  6536 ;; Parameters:    Size  Location     Type
  6537 ;;  addr            1    wreg     unsigned char 
  6538 ;; Auto vars:     Size  Location     Type
  6539 ;;  addr            1    0[COMRAM] unsigned char 
  6540 ;; Return value:  Size  Location     Type
  6541 ;;                  1    wreg      void 
  6542 ;; Registers used:
  6543 ;;		wreg
  6544 ;; Tracked objects:
  6545 ;;		On entry : 0/0
  6546 ;;		On exit  : 0/0
  6547 ;;		Unchanged: 0/0
  6548 ;; Data sizes:     COMRAM   BANK5   BANK6   BANK7   BANK8   BANK9  BANK10  BANK11  BANK12  BANK13  BANK14  BANK15  BANK1
      +6  BANK17  BANK18  BANK19  BANK20  BANK21  BANK22  BANK23  BANK24  BANK25  BANK26  BANK27  BANK28  BANK29  BANK30  BANK3
      +1  BANK32  BANK33  BANK34  BANK35  BANK36
  6549 ;;      Params:         0       0       0       0       0       0       0       0       0       0       0       0       
      +0       0       0       0       0       0       0       0       0       0       0       0       0       0       0       
      +0       0       0       0       0       0
  6550 ;;      Locals:         1       0       0       0       0       0       0       0       0       0       0       0       
      +0       0       0       0       0       0       0       0       0       0       0       0       0       0       0       
      +0       0       0       0       0       0
  6551 ;;      Temps:          0       0       0       0       0       0       0       0       0       0       0       0       
      +0       0       0       0       0       0       0       0       0       0       0       0       0       0       0       
      +0       0       0       0       0       0
  6552 ;;      Totals:         1       0       0       0       0       0       0       0       0       0       0       0       
      +0       0       0       0       0       0       0       0       0       0       0       0       0       0       0       
      +0       0       0       0       0       0
  6553 ;;Total ram usage:        1 bytes
  6554 ;; Hardware stack levels used: 1
  6555 ;; This function calls:
  6556 ;;		Nothing
  6557 ;; This function is called by:
  6558 ;;		_I2C1_ReadStart
  6559 ;;		_I2C1_WriteStart
  6560 ;; This function uses a non-reentrant model
  6561 ;;
  6562                           
  6563                           	psect	text54
  6564   011706                     __ptext54:
  6565                           	callstack 0
  6566   011706                     _I2C1_AddrTransmit:
  6567                           	callstack 112
  6568                           
  6569                           ; BSR set to: 2
  6570                           ;incstack = 0
  6571                           ;I2C1_AddrTransmit@addr stored from wreg
  6572   011706  6E01               	movwf	I2C1_AddrTransmit@addr^(0+1280),c
  6573   011708                     
  6574                           ;mcc_generated_files/i2c_host/src/i2c1.c: 352: static void I2C1_AddrTransmit(uint8_t add
      +                          r);mcc_generated_files/i2c_host/src/i2c1.c: 353: {;mcc_generated_files/i2c_host/src/i2c1
      +                          .c: 354:     I2C1ADB1 = addr;
  6575   011708  C501  F28F         	movff	I2C1_AddrTransmit@addr,655	;volatile
  6576   01170C  0012               	return		;funcret
  6577   01170E                     __end_of_I2C1_AddrTransmit:
  6578                           	callstack 0
  6579                           
  6580 ;; *************** function _I2C1_Close *****************
  6581 ;; Defined at:
  6582 ;;		line 328 in file "mcc_generated_files/i2c_host/src/i2c1.c"
  6583 ;; Parameters:    Size  Location     Type
  6584 ;;		None
  6585 ;; Auto vars:     Size  Location     Type
  6586 ;;		None
  6587 ;; Return value:  Size  Location     Type
  6588 ;;                  1    wreg      void 
  6589 ;; Registers used:
  6590 ;;		wreg, status,2, status,0, cstack
  6591 ;; Tracked objects:
  6592 ;;		On entry : 0/0
  6593 ;;		On exit  : 0/0
  6594 ;;		Unchanged: 0/0
  6595 ;; Data sizes:     COMRAM   BANK5   BANK6   BANK7   BANK8   BANK9  BANK10  BANK11  BANK12  BANK13  BANK14  BANK15  BANK1
      +6  BANK17  BANK18  BANK19  BANK20  BANK21  BANK22  BANK23  BANK24  BANK25  BANK26  BANK27  BANK28  BANK29  BANK30  BANK3
      +1  BANK32  BANK33  BANK34  BANK35  BANK36
  6596 ;;      Params:         0       0       0       0       0       0       0       0       0       0       0       0       
      +0       0       0       0       0       0       0       0       0       0       0       0       0       0       0       
      +0       0       0       0       0       0
  6597 ;;      Locals:         0       0       0       0       0       0       0       0       0       0       0       0       
      +0       0       0       0       0       0       0       0       0       0       0       0       0       0       0       
      +0       0       0       0       0       0
  6598 ;;      Temps:          0       0       0       0       0       0       0       0       0       0       0       0       
      +0       0       0       0       0       0       0       0       0       0       0       0       0       0       0       
      +0       0       0       0       0       0
  6599 ;;      Totals:         0       0       0       0       0       0       0       0       0       0       0       0       
      +0       0       0       0       0       0       0       0       0       0       0       0       0       0       0       
      +0       0       0       0       0       0
  6600 ;;Total ram usage:        0 bytes
  6601 ;; Hardware stack levels used: 1
  6602 ;; Hardware stack levels required when called: 1
  6603 ;; This function calls:
  6604 ;;		_I2C1_BufferClear
  6605 ;;		_I2C1_ErrorFlagsClear
  6606 ;;		_I2C1_InterruptsClear
  6607 ;; This function is called by:
  6608 ;;		_I2C1_ISR
  6609 ;; This function uses a non-reentrant model
  6610 ;;
  6611                           
  6612                           	psect	text55
  6613   011412                     __ptext55:
  6614                           	callstack 0
  6615   011412                     _I2C1_Close:
  6616                           	callstack 112
  6617   011412                     
  6618                           ;mcc_generated_files/i2c_host/src/i2c1.c: 330:     i2c1Status.busy = 0;
  6619   011412  0E00               	movlw	0
  6620   011414  0105               	movlb	5	; () banked
  6621   011416  6F90               	movwf	_i2c1Status& (0+255),b	;volatile
  6622                           
  6623                           ;mcc_generated_files/i2c_host/src/i2c1.c: 331:     i2c1Status.address = 0xFF;
  6624   011418  0E00               	movlw	0
  6625   01141A  6F92               	movwf	(_i2c1Status+2)& (0+255),b	;volatile
  6626   01141C  6991               	setf	(_i2c1Status+1)& (0+255),b	;volatile
  6627   01141E                     
  6628                           ; BSR set to: 5
  6629                           ;mcc_generated_files/i2c_host/src/i2c1.c: 332:     i2c1Status.writePtr = ((void*)0);
  6630   01141E  0E00               	movlw	0
  6631   011420  6F93               	movwf	(_i2c1Status+3)& (0+255),b	;volatile
  6632   011422  0E00               	movlw	0
  6633   011424  6F94               	movwf	(_i2c1Status+4)& (0+255),b	;volatile
  6634   011426                     
  6635                           ; BSR set to: 5
  6636                           ;mcc_generated_files/i2c_host/src/i2c1.c: 333:     i2c1Status.readPtr = ((void*)0);
  6637   011426  0E00               	movlw	0
  6638   011428  6F97               	movwf	(_i2c1Status+7)& (0+255),b	;volatile
  6639   01142A  0E00               	movlw	0
  6640   01142C  6F98               	movwf	(_i2c1Status+8)& (0+255),b	;volatile
  6641   01142E                     
  6642                           ; BSR set to: 5
  6643                           ;mcc_generated_files/i2c_host/src/i2c1.c: 334:     I2C1_InterruptsClear();
  6644   01142E  EC8F  F08B         	call	_I2C1_InterruptsClear	;wreg free
  6645                           
  6646                           ;mcc_generated_files/i2c_host/src/i2c1.c: 335:     I2C1_ErrorFlagsClear();
  6647   011432  EC75  F08B         	call	_I2C1_ErrorFlagsClear	;wreg free
  6648   011436                     
  6649                           ;mcc_generated_files/i2c_host/src/i2c1.c: 336:     I2C1_BufferClear();
  6650   011436  EC7A  F08B         	call	_I2C1_BufferClear	;wreg free
  6651   01143A  0012               	return		;funcret
  6652   01143C                     __end_of_I2C1_Close:
  6653                           	callstack 0
  6654                           
  6655 ;; *************** function _I2C1_ERROR_ISR *****************
  6656 ;; Defined at:
  6657 ;;		line 253 in file "mcc_generated_files/i2c_host/src/i2c1.c"
  6658 ;; Parameters:    Size  Location     Type
  6659 ;;		None
  6660 ;; Auto vars:     Size  Location     Type
  6661 ;;		None
  6662 ;; Return value:  Size  Location     Type
  6663 ;;                  1    wreg      void 
  6664 ;; Registers used:
  6665 ;;		wreg, status,2, pcl, pclath, pclatu, tosl, cstack
  6666 ;; Tracked objects:
  6667 ;;		On entry : 0/0
  6668 ;;		On exit  : 0/0
  6669 ;;		Unchanged: 0/0
  6670 ;; Data sizes:     COMRAM   BANK5   BANK6   BANK7   BANK8   BANK9  BANK10  BANK11  BANK12  BANK13  BANK14  BANK15  BANK1
      +6  BANK17  BANK18  BANK19  BANK20  BANK21  BANK22  BANK23  BANK24  BANK25  BANK26  BANK27  BANK28  BANK29  BANK30  BANK3
      +1  BANK32  BANK33  BANK34  BANK35  BANK36
  6671 ;;      Params:         0       0       0       0       0       0       0       0       0       0       0       0       
      +0       0       0       0       0       0       0       0       0       0       0       0       0       0       0       
      +0       0       0       0       0       0
  6672 ;;      Locals:         0       0       0       0       0       0       0       0       0       0       0       0       
      +0       0       0       0       0       0       0       0       0       0       0       0       0       0       0       
      +0       0       0       0       0       0
  6673 ;;      Temps:          0       0       0       0       0       0       0       0       0       0       0       0       
      +0       0       0       0       0       0       0       0       0       0       0       0       0       0       0       
      +0       0       0       0       0       0
  6674 ;;      Totals:         0       0       0       0       0       0       0       0       0       0       0       0       
      +0       0       0       0       0       0       0       0       0       0       0       0       0       0       0       
      +0       0       0       0       0       0
  6675 ;;Total ram usage:        0 bytes
  6676 ;; Hardware stack levels used: 1
  6677 ;; Hardware stack levels required when called: 2
  6678 ;; This function calls:
  6679 ;;		Absolute function
  6680 ;;		_I2C1_BusReset
  6681 ;;		_I2C1_DefaultCallback
  6682 ;;		_I2C1_IsAddr
  6683 ;;		_I2C1_IsBusCol
  6684 ;;		_I2C1_IsBusTimeOut
  6685 ;;		_I2C1_IsData
  6686 ;;		_I2C1_IsNack
  6687 ;;		_I2C1_StopSend
  6688 ;; This function is called by:
  6689 ;;		_INTERRUPT_InterruptManager
  6690 ;; This function uses a non-reentrant model
  6691 ;;
  6692                           
  6693                           	psect	text56
  6694   010B40                     __ptext56:
  6695                           	callstack 0
  6696   010B40                     _I2C1_ERROR_ISR:
  6697                           	callstack 112
  6698   010B40                     
  6699                           ;mcc_generated_files/i2c_host/src/i2c1.c: 255:     if (I2C1_IsBusCol())
  6700   010B40  EC25  F08B         	call	_I2C1_IsBusCol	;wreg free
  6701   010B44  0900               	iorlw	0
  6702   010B46  B4D8               	btfsc	status,2,c
  6703   010B48  EFA8  F085         	goto	i2u205_41
  6704   010B4C  EFAA  F085         	goto	i2u205_40
  6705   010B50                     i2u205_41:
  6706   010B50  EFB3  F085         	goto	i2l3511
  6707   010B54                     i2u205_40:
  6708   010B54                     
  6709                           ;mcc_generated_files/i2c_host/src/i2c1.c: 256:     {;mcc_generated_files/i2c_host/src/i2
      +                          c1.c: 257:         i2c1Status.errorState = I2C_ERROR_BUS_COLLISION;
  6710   010B54  0E03               	movlw	3
  6711   010B56  0105               	movlb	5	; () banked
  6712   010B58  6F9C               	movwf	(_i2c1Status+12)& (0+255),b	;volatile
  6713   010B5A                     
  6714                           ; BSR set to: 5
  6715                           ;mcc_generated_files/i2c_host/src/i2c1.c: 258:         I2C1ERRbits.BCLIF = 0;
  6716   010B5A  0102               	movlb	2	; () banked
  6717   010B5C  9B97               	bcf	151,5,b	;volatile
  6718   010B5E                     
  6719                           ; BSR set to: 2
  6720                           ;mcc_generated_files/i2c_host/src/i2c1.c: 259:         I2C1_BusReset();
  6721   010B5E  EC57  F089         	call	_I2C1_BusReset	;wreg free
  6722                           
  6723                           ;mcc_generated_files/i2c_host/src/i2c1.c: 260:     }
  6724   010B62  EFFE  F085         	goto	i2l3537
  6725   010B66                     i2l3511:
  6726   010B66  EC30  F08B         	call	_I2C1_IsAddr	;wreg free
  6727   010B6A  0900               	iorlw	0
  6728   010B6C  B4D8               	btfsc	status,2,c
  6729   010B6E  EFBB  F085         	goto	i2u206_41
  6730   010B72  EFBD  F085         	goto	i2u206_40
  6731   010B76                     i2u206_41:
  6732   010B76  EFD0  F085         	goto	i2l3521
  6733   010B7A                     i2u206_40:
  6734   010B7A  EC04  F08B         	call	_I2C1_IsNack	;wreg free
  6735   010B7E  0900               	iorlw	0
  6736   010B80  B4D8               	btfsc	status,2,c
  6737   010B82  EFC5  F085         	goto	i2u207_41
  6738   010B86  EFC7  F085         	goto	i2u207_40
  6739   010B8A                     i2u207_41:
  6740   010B8A  EFD0  F085         	goto	i2l3521
  6741   010B8E                     i2u207_40:
  6742   010B8E                     
  6743                           ;mcc_generated_files/i2c_host/src/i2c1.c: 262:     {;mcc_generated_files/i2c_host/src/i2
      +                          c1.c: 263:         i2c1Status.errorState = I2C_ERROR_ADDR_NACK;
  6744   010B8E  0E01               	movlw	1
  6745   010B90  0105               	movlb	5	; () banked
  6746   010B92  6F9C               	movwf	(_i2c1Status+12)& (0+255),b	;volatile
  6747   010B94                     
  6748                           ; BSR set to: 5
  6749                           ;mcc_generated_files/i2c_host/src/i2c1.c: 264:         I2C1ERRbits.NACKIF = 0;
  6750   010B94  0102               	movlb	2	; () banked
  6751   010B96  9997               	bcf	151,4,b	;volatile
  6752   010B98                     i2l3519:
  6753                           
  6754                           ; BSR set to: 2
  6755                           ;mcc_generated_files/i2c_host/src/i2c1.c: 265:         I2C1_StopSend();
  6756   010B98  EC46  F08A         	call	_I2C1_StopSend	;wreg free
  6757                           
  6758                           ;mcc_generated_files/i2c_host/src/i2c1.c: 266:     }
  6759   010B9C  EFFE  F085         	goto	i2l3537
  6760   010BA0                     i2l3521:
  6761   010BA0  EC0F  F08B         	call	_I2C1_IsData	;wreg free
  6762   010BA4  0900               	iorlw	0
  6763   010BA6  B4D8               	btfsc	status,2,c
  6764   010BA8  EFD8  F085         	goto	i2u208_41
  6765   010BAC  EFDA  F085         	goto	i2u208_40
  6766   010BB0                     i2u208_41:
  6767   010BB0  EFEB  F085         	goto	i2l3531
  6768   010BB4                     i2u208_40:
  6769   010BB4  EC04  F08B         	call	_I2C1_IsNack	;wreg free
  6770   010BB8  0900               	iorlw	0
  6771   010BBA  B4D8               	btfsc	status,2,c
  6772   010BBC  EFE2  F085         	goto	i2u209_41
  6773   010BC0  EFE4  F085         	goto	i2u209_40
  6774   010BC4                     i2u209_41:
  6775   010BC4  EFEB  F085         	goto	i2l3531
  6776   010BC8                     i2u209_40:
  6777   010BC8                     
  6778                           ;mcc_generated_files/i2c_host/src/i2c1.c: 268:     {;mcc_generated_files/i2c_host/src/i2
      +                          c1.c: 269:         i2c1Status.errorState = I2C_ERROR_DATA_NACK;
  6779   010BC8  0E02               	movlw	2
  6780   010BCA  0105               	movlb	5	; () banked
  6781   010BCC  6F9C               	movwf	(_i2c1Status+12)& (0+255),b	;volatile
  6782   010BCE                     
  6783                           ; BSR set to: 5
  6784                           ;mcc_generated_files/i2c_host/src/i2c1.c: 270:         I2C1ERRbits.NACKIF = 0;
  6785   010BCE  0102               	movlb	2	; () banked
  6786   010BD0  9997               	bcf	151,4,b	;volatile
  6787   010BD2  EFCC  F085         	goto	i2l3519
  6788   010BD6                     i2l3531:
  6789   010BD6  EC1A  F08B         	call	_I2C1_IsBusTimeOut	;wreg free
  6790   010BDA  0900               	iorlw	0
  6791   010BDC  B4D8               	btfsc	status,2,c
  6792   010BDE  EFF3  F085         	goto	i2u210_41
  6793   010BE2  EFF5  F085         	goto	i2u210_40
  6794   010BE6                     i2u210_41:
  6795   010BE6  EFFC  F085         	goto	i2l165
  6796   010BEA                     i2u210_40:
  6797   010BEA                     
  6798                           ;mcc_generated_files/i2c_host/src/i2c1.c: 274:     {;mcc_generated_files/i2c_host/src/i2
      +                          c1.c: 275:         i2c1Status.errorState = I2C_ERROR_BUS_COLLISION;
  6799   010BEA  0E03               	movlw	3
  6800   010BEC  0105               	movlb	5	; () banked
  6801   010BEE  6F9C               	movwf	(_i2c1Status+12)& (0+255),b	;volatile
  6802   010BF0                     
  6803                           ; BSR set to: 5
  6804                           ;mcc_generated_files/i2c_host/src/i2c1.c: 276:         I2C1ERRbits.BTOIF = 0;
  6805   010BF0  0102               	movlb	2	; () banked
  6806   010BF2  9D97               	bcf	151,6,b	;volatile
  6807                           
  6808                           ;mcc_generated_files/i2c_host/src/i2c1.c: 277:     }
  6809   010BF4  EFFE  F085         	goto	i2l3537
  6810   010BF8                     i2l165:
  6811                           
  6812                           ;mcc_generated_files/i2c_host/src/i2c1.c: 279:     {;mcc_generated_files/i2c_host/src/i2
      +                          c1.c: 280:         I2C1ERRbits.NACKIF = 0;
  6813   010BF8  0102               	movlb	2	; () banked
  6814   010BFA  9997               	bcf	151,4,b	;volatile
  6815   010BFC                     i2l3537:
  6816                           
  6817                           ;mcc_generated_files/i2c_host/src/i2c1.c: 283:     if (i2c1Status.errorState != I2C_ERRO
      +                          R_NONE)
  6818   010BFC  0105               	movlb	5	; () banked
  6819   010BFE  519C               	movf	(_i2c1Status+12)& (0+255),w,b	;volatile
  6820   010C00  B4D8               	btfsc	status,2,c
  6821   010C02  EF05  F086         	goto	i2u211_41
  6822   010C06  EF07  F086         	goto	i2u211_40
  6823   010C0A                     i2u211_41:
  6824   010C0A  EF14  F086         	goto	i2l168
  6825   010C0E                     i2u211_40:
  6826   010C0E                     
  6827                           ; BSR set to: 5
  6828                           ;mcc_generated_files/i2c_host/src/i2c1.c: 284:     {;mcc_generated_files/i2c_host/src/i2
      +                          c1.c: 285:         I2C1_Callback();
  6829   010C0E  D802               	call	i2u212_48
  6830   010C10  EF14  F086         	goto	i2u212_49
  6831   010C14                     i2u212_48:
  6832   010C14  0005               	push	
  6833   010C16  6EFA               	movwf	pclath,c
  6834   010C18  51BE               	movf	_I2C1_Callback& (0+255),w,b
  6835   010C1A  6EFD               	movwf	tosl,c
  6836   010C1C  51BF               	movf	(_I2C1_Callback+1)& (0+255),w,b
  6837   010C1E  6EFE               	movwf	tosh,c
  6838   010C20  51C0               	movf	(_I2C1_Callback+2)& (0+255),w,b
  6839   010C22  6EFF               	movwf	tosu,c
  6840   010C24  50FA               	movf	pclath,w,c
  6841   010C26  0012               	return		;indir
  6842   010C28                     i2u212_49:
  6843   010C28                     i2l168:
  6844   010C28  0012               	return		;funcret
  6845   010C2A                     __end_of_I2C1_ERROR_ISR:
  6846                           	callstack 0
  6847                           
  6848 ;; *************** function _I2C1_StopSend *****************
  6849 ;; Defined at:
  6850 ;;		line 413 in file "mcc_generated_files/i2c_host/src/i2c1.c"
  6851 ;; Parameters:    Size  Location     Type
  6852 ;;		None
  6853 ;; Auto vars:     Size  Location     Type
  6854 ;;		None
  6855 ;; Return value:  Size  Location     Type
  6856 ;;                  1    wreg      void 
  6857 ;; Registers used:
  6858 ;;		wreg, status,2, cstack
  6859 ;; Tracked objects:
  6860 ;;		On entry : 0/0
  6861 ;;		On exit  : 0/0
  6862 ;;		Unchanged: 0/0
  6863 ;; Data sizes:     COMRAM   BANK5   BANK6   BANK7   BANK8   BANK9  BANK10  BANK11  BANK12  BANK13  BANK14  BANK15  BANK1
      +6  BANK17  BANK18  BANK19  BANK20  BANK21  BANK22  BANK23  BANK24  BANK25  BANK26  BANK27  BANK28  BANK29  BANK30  BANK3
      +1  BANK32  BANK33  BANK34  BANK35  BANK36
  6864 ;;      Params:         0       0       0       0       0       0       0       0       0       0       0       0       
      +0       0       0       0       0       0       0       0       0       0       0       0       0       0       0       
      +0       0       0       0       0       0
  6865 ;;      Locals:         0       0       0       0       0       0       0       0       0       0       0       0       
      +0       0       0       0       0       0       0       0       0       0       0       0       0       0       0       
      +0       0       0       0       0       0
  6866 ;;      Temps:          0       0       0       0       0       0       0       0       0       0       0       0       
      +0       0       0       0       0       0       0       0       0       0       0       0       0       0       0       
      +0       0       0       0       0       0
  6867 ;;      Totals:         0       0       0       0       0       0       0       0       0       0       0       0       
      +0       0       0       0       0       0       0       0       0       0       0       0       0       0       0       
      +0       0       0       0       0       0
  6868 ;;Total ram usage:        0 bytes
  6869 ;; Hardware stack levels used: 1
  6870 ;; Hardware stack levels required when called: 1
  6871 ;; This function calls:
  6872 ;;		_I2C1_CounterGet
  6873 ;;		_I2C1_CounterSet
  6874 ;;		_I2C1_DataTransmit
  6875 ;;		_I2C1_RestartDisable
  6876 ;; This function is called by:
  6877 ;;		_I2C1_ISR
  6878 ;;		_I2C1_ERROR_ISR
  6879 ;; This function uses a non-reentrant model
  6880 ;;
  6881                           
  6882                           	psect	text57
  6883   01148C                     __ptext57:
  6884                           	callstack 0
  6885   01148C                     _I2C1_StopSend:
  6886                           	callstack 112
  6887   01148C                     
  6888                           ;mcc_generated_files/i2c_host/src/i2c1.c: 415:     I2C1_RestartDisable();
  6889   01148C  EC99  F08B         	call	_I2C1_RestartDisable	;wreg free
  6890   011490                     
  6891                           ;mcc_generated_files/i2c_host/src/i2c1.c: 416:     if (I2C1_CounterGet())
  6892   011490  EC9C  F08B         	call	_I2C1_CounterGet	;wreg free
  6893   011494  0900               	iorlw	0
  6894   011496  B4D8               	btfsc	status,2,c
  6895   011498  EF50  F08A         	goto	i2u184_41
  6896   01149C  EF52  F08A         	goto	i2u184_40
  6897   0114A0                     i2u184_41:
  6898   0114A0  EF58  F08A         	goto	i2l220
  6899   0114A4                     i2u184_40:
  6900   0114A4                     
  6901                           ;mcc_generated_files/i2c_host/src/i2c1.c: 417:     {;mcc_generated_files/i2c_host/src/i2
      +                          c1.c: 418:         I2C1_CounterSet(0);
  6902   0114A4  0E00               	movlw	0
  6903   0114A6  EC8B  F08B         	call	_I2C1_CounterSet
  6904                           
  6905                           ;mcc_generated_files/i2c_host/src/i2c1.c: 419:         I2C1_DataTransmit(0);
  6906   0114AA  0E00               	movlw	0
  6907   0114AC  EC87  F08B         	call	_I2C1_DataTransmit
  6908   0114B0                     i2l220:
  6909   0114B0  0012               	return		;funcret
  6910   0114B2                     __end_of_I2C1_StopSend:
  6911                           	callstack 0
  6912                           
  6913 ;; *************** function _I2C1_RestartDisable *****************
  6914 ;; Defined at:
  6915 ;;		line 408 in file "mcc_generated_files/i2c_host/src/i2c1.c"
  6916 ;; Parameters:    Size  Location     Type
  6917 ;;		None
  6918 ;; Auto vars:     Size  Location     Type
  6919 ;;		None
  6920 ;; Return value:  Size  Location     Type
  6921 ;;                  1    wreg      void 
  6922 ;; Registers used:
  6923 ;;		None
  6924 ;; Tracked objects:
  6925 ;;		On entry : 0/0
  6926 ;;		On exit  : 0/0
  6927 ;;		Unchanged: 0/0
  6928 ;; Data sizes:     COMRAM   BANK5   BANK6   BANK7   BANK8   BANK9  BANK10  BANK11  BANK12  BANK13  BANK14  BANK15  BANK1
      +6  BANK17  BANK18  BANK19  BANK20  BANK21  BANK22  BANK23  BANK24  BANK25  BANK26  BANK27  BANK28  BANK29  BANK30  BANK3
      +1  BANK32  BANK33  BANK34  BANK35  BANK36
  6929 ;;      Params:         0       0       0       0       0       0       0       0       0       0       0       0       
      +0       0       0       0       0       0       0       0       0       0       0       0       0       0       0       
      +0       0       0       0       0       0
  6930 ;;      Locals:         0       0       0       0       0       0       0       0       0       0       0       0       
      +0       0       0       0       0       0       0       0       0       0       0       0       0       0       0       
      +0       0       0       0       0       0
  6931 ;;      Temps:          0       0       0       0       0       0       0       0       0       0       0       0       
      +0       0       0       0       0       0       0       0       0       0       0       0       0       0       0       
      +0       0       0       0       0       0
  6932 ;;      Totals:         0       0       0       0       0       0       0       0       0       0       0       0       
      +0       0       0       0       0       0       0       0       0       0       0       0       0       0       0       
      +0       0       0       0       0       0
  6933 ;;Total ram usage:        0 bytes
  6934 ;; Hardware stack levels used: 1
  6935 ;; This function calls:
  6936 ;;		Nothing
  6937 ;; This function is called by:
  6938 ;;		_I2C1_ISR
  6939 ;;		_I2C1_StopSend
  6940 ;; This function uses a non-reentrant model
  6941 ;;
  6942                           
  6943                           	psect	text58
  6944   011732                     __ptext58:
  6945                           	callstack 0
  6946   011732                     _I2C1_RestartDisable:
  6947                           	callstack 112
  6948   011732                     
  6949                           ;mcc_generated_files/i2c_host/src/i2c1.c: 410:     I2C1CON0bits.RSEN = 0;
  6950   011732  0102               	movlb	2	; () banked
  6951   011734  9D94               	bcf	148,6,b	;volatile
  6952   011736                     
  6953                           ; BSR set to: 2
  6954   011736  0012               	return		;funcret
  6955   011738                     __end_of_I2C1_RestartDisable:
  6956                           	callstack 0
  6957                           
  6958 ;; *************** function _I2C1_DataTransmit *****************
  6959 ;; Defined at:
  6960 ;;		line 357 in file "mcc_generated_files/i2c_host/src/i2c1.c"
  6961 ;; Parameters:    Size  Location     Type
  6962 ;;  data            1    wreg     unsigned char 
  6963 ;; Auto vars:     Size  Location     Type
  6964 ;;  data            1    0[COMRAM] unsigned char 
  6965 ;; Return value:  Size  Location     Type
  6966 ;;                  1    wreg      void 
  6967 ;; Registers used:
  6968 ;;		wreg
  6969 ;; Tracked objects:
  6970 ;;		On entry : 0/0
  6971 ;;		On exit  : 0/0
  6972 ;;		Unchanged: 0/0
  6973 ;; Data sizes:     COMRAM   BANK5   BANK6   BANK7   BANK8   BANK9  BANK10  BANK11  BANK12  BANK13  BANK14  BANK15  BANK1
      +6  BANK17  BANK18  BANK19  BANK20  BANK21  BANK22  BANK23  BANK24  BANK25  BANK26  BANK27  BANK28  BANK29  BANK30  BANK3
      +1  BANK32  BANK33  BANK34  BANK35  BANK36
  6974 ;;      Params:         0       0       0       0       0       0       0       0       0       0       0       0       
      +0       0       0       0       0       0       0       0       0       0       0       0       0       0       0       
      +0       0       0       0       0       0
  6975 ;;      Locals:         1       0       0       0       0       0       0       0       0       0       0       0       
      +0       0       0       0       0       0       0       0       0       0       0       0       0       0       0       
      +0       0       0       0       0       0
  6976 ;;      Temps:          0       0       0       0       0       0       0       0       0       0       0       0       
      +0       0       0       0       0       0       0       0       0       0       0       0       0       0       0       
      +0       0       0       0       0       0
  6977 ;;      Totals:         1       0       0       0       0       0       0       0       0       0       0       0       
      +0       0       0       0       0       0       0       0       0       0       0       0       0       0       0       
      +0       0       0       0       0       0
  6978 ;;Total ram usage:        1 bytes
  6979 ;; Hardware stack levels used: 1
  6980 ;; This function calls:
  6981 ;;		Nothing
  6982 ;; This function is called by:
  6983 ;;		_I2C1_TX_ISR
  6984 ;;		_I2C1_StopSend
  6985 ;; This function uses a non-reentrant model
  6986 ;;
  6987                           
  6988                           	psect	text59
  6989   01170E                     __ptext59:
  6990                           	callstack 0
  6991   01170E                     _I2C1_DataTransmit:
  6992                           	callstack 113
  6993                           
  6994                           ; BSR set to: 2
  6995                           ;incstack = 0
  6996                           ;I2C1_DataTransmit@data stored from wreg
  6997   01170E  6E01               	movwf	I2C1_DataTransmit@data^(0+1280),c
  6998   011710                     
  6999                           ;mcc_generated_files/i2c_host/src/i2c1.c: 357: static void I2C1_DataTransmit(uint8_t dat
      +                          a);mcc_generated_files/i2c_host/src/i2c1.c: 358: {;mcc_generated_files/i2c_host/src/i2c1
      +                          .c: 359:     I2C1TXB = data;
  7000   011710  C501  F28C         	movff	I2C1_DataTransmit@data,652	;volatile
  7001   011714  0012               	return		;funcret
  7002   011716                     __end_of_I2C1_DataTransmit:
  7003                           	callstack 0
  7004                           
  7005 ;; *************** function _I2C1_CounterSet *****************
  7006 ;; Defined at:
  7007 ;;		line 367 in file "mcc_generated_files/i2c_host/src/i2c1.c"
  7008 ;; Parameters:    Size  Location     Type
  7009 ;;  counter         1    wreg     unsigned char 
  7010 ;; Auto vars:     Size  Location     Type
  7011 ;;  counter         1    0[COMRAM] unsigned char 
  7012 ;; Return value:  Size  Location     Type
  7013 ;;                  1    wreg      void 
  7014 ;; Registers used:
  7015 ;;		wreg
  7016 ;; Tracked objects:
  7017 ;;		On entry : 0/0
  7018 ;;		On exit  : 0/0
  7019 ;;		Unchanged: 0/0
  7020 ;; Data sizes:     COMRAM   BANK5   BANK6   BANK7   BANK8   BANK9  BANK10  BANK11  BANK12  BANK13  BANK14  BANK15  BANK1
      +6  BANK17  BANK18  BANK19  BANK20  BANK21  BANK22  BANK23  BANK24  BANK25  BANK26  BANK27  BANK28  BANK29  BANK30  BANK3
      +1  BANK32  BANK33  BANK34  BANK35  BANK36
  7021 ;;      Params:         0       0       0       0       0       0       0       0       0       0       0       0       
      +0       0       0       0       0       0       0       0       0       0       0       0       0       0       0       
      +0       0       0       0       0       0
  7022 ;;      Locals:         1       0       0       0       0       0       0       0       0       0       0       0       
      +0       0       0       0       0       0       0       0       0       0       0       0       0       0       0       
      +0       0       0       0       0       0
  7023 ;;      Temps:          0       0       0       0       0       0       0       0       0       0       0       0       
      +0       0       0       0       0       0       0       0       0       0       0       0       0       0       0       
      +0       0       0       0       0       0
  7024 ;;      Totals:         1       0       0       0       0       0       0       0       0       0       0       0       
      +0       0       0       0       0       0       0       0       0       0       0       0       0       0       0       
      +0       0       0       0       0       0
  7025 ;;Total ram usage:        1 bytes
  7026 ;; Hardware stack levels used: 1
  7027 ;; This function calls:
  7028 ;;		Nothing
  7029 ;; This function is called by:
  7030 ;;		_I2C1_ReadStart
  7031 ;;		_I2C1_StopSend
  7032 ;;		_I2C1_WriteStart
  7033 ;; This function uses a non-reentrant model
  7034 ;;
  7035                           
  7036                           	psect	text60
  7037   011716                     __ptext60:
  7038                           	callstack 0
  7039   011716                     _I2C1_CounterSet:
  7040                           	callstack 112
  7041                           
  7042                           ;incstack = 0
  7043                           ;I2C1_CounterSet@counter stored from wreg
  7044   011716  6E01               	movwf	I2C1_CounterSet@counter^(0+1280),c
  7045   011718                     
  7046                           ;mcc_generated_files/i2c_host/src/i2c1.c: 367: static void I2C1_CounterSet(uint8_t count
      +                          er);mcc_generated_files/i2c_host/src/i2c1.c: 368: {;mcc_generated_files/i2c_host/src/i2c
      +                          1.c: 369:     I2C1CNT = counter;
  7047   011718  C501  F28D         	movff	I2C1_CounterSet@counter,653	;volatile
  7048   01171C  0012               	return		;funcret
  7049   01171E                     __end_of_I2C1_CounterSet:
  7050                           	callstack 0
  7051                           
  7052 ;; *************** function _I2C1_CounterGet *****************
  7053 ;; Defined at:
  7054 ;;		line 372 in file "mcc_generated_files/i2c_host/src/i2c1.c"
  7055 ;; Parameters:    Size  Location     Type
  7056 ;;		None
  7057 ;; Auto vars:     Size  Location     Type
  7058 ;;		None
  7059 ;; Return value:  Size  Location     Type
  7060 ;;                  1    wreg      unsigned char 
  7061 ;; Registers used:
  7062 ;;		wreg, status,2
  7063 ;; Tracked objects:
  7064 ;;		On entry : 0/0
  7065 ;;		On exit  : 0/0
  7066 ;;		Unchanged: 0/0
  7067 ;; Data sizes:     COMRAM   BANK5   BANK6   BANK7   BANK8   BANK9  BANK10  BANK11  BANK12  BANK13  BANK14  BANK15  BANK1
      +6  BANK17  BANK18  BANK19  BANK20  BANK21  BANK22  BANK23  BANK24  BANK25  BANK26  BANK27  BANK28  BANK29  BANK30  BANK3
      +1  BANK32  BANK33  BANK34  BANK35  BANK36
  7068 ;;      Params:         0       0       0       0       0       0       0       0       0       0       0       0       
      +0       0       0       0       0       0       0       0       0       0       0       0       0       0       0       
      +0       0       0       0       0       0
  7069 ;;      Locals:         0       0       0       0       0       0       0       0       0       0       0       0       
      +0       0       0       0       0       0       0       0       0       0       0       0       0       0       0       
      +0       0       0       0       0       0
  7070 ;;      Temps:          0       0       0       0       0       0       0       0       0       0       0       0       
      +0       0       0       0       0       0       0       0       0       0       0       0       0       0       0       
      +0       0       0       0       0       0
  7071 ;;      Totals:         0       0       0       0       0       0       0       0       0       0       0       0       
      +0       0       0       0       0       0       0       0       0       0       0       0       0       0       0       
      +0       0       0       0       0       0
  7072 ;;Total ram usage:        0 bytes
  7073 ;; Hardware stack levels used: 1
  7074 ;; This function calls:
  7075 ;;		Nothing
  7076 ;; This function is called by:
  7077 ;;		_I2C1_StopSend
  7078 ;; This function uses a non-reentrant model
  7079 ;;
  7080                           
  7081                           	psect	text61
  7082   011738                     __ptext61:
  7083                           	callstack 0
  7084   011738                     _I2C1_CounterGet:
  7085                           	callstack 112
  7086   011738                     
  7087                           ;mcc_generated_files/i2c_host/src/i2c1.c: 374:     return (uint8_t) I2C1CNT;
  7088   011738  0102               	movlb	2	; () banked
  7089   01173A  518D               	movf	141,w,b	;volatile
  7090   01173C                     
  7091                           ; BSR set to: 2
  7092   01173C  0012               	return		;funcret
  7093   01173E                     __end_of_I2C1_CounterGet:
  7094                           	callstack 0
  7095                           
  7096 ;; *************** function _I2C1_IsNack *****************
  7097 ;; Defined at:
  7098 ;;		line 423 in file "mcc_generated_files/i2c_host/src/i2c1.c"
  7099 ;; Parameters:    Size  Location     Type
  7100 ;;		None
  7101 ;; Auto vars:     Size  Location     Type
  7102 ;;		None
  7103 ;; Return value:  Size  Location     Type
  7104 ;;                  1    wreg      _Bool 
  7105 ;; Registers used:
  7106 ;;		wreg
  7107 ;; Tracked objects:
  7108 ;;		On entry : 0/0
  7109 ;;		On exit  : 0/0
  7110 ;;		Unchanged: 0/0
  7111 ;; Data sizes:     COMRAM   BANK5   BANK6   BANK7   BANK8   BANK9  BANK10  BANK11  BANK12  BANK13  BANK14  BANK15  BANK1
      +6  BANK17  BANK18  BANK19  BANK20  BANK21  BANK22  BANK23  BANK24  BANK25  BANK26  BANK27  BANK28  BANK29  BANK30  BANK3
      +1  BANK32  BANK33  BANK34  BANK35  BANK36
  7112 ;;      Params:         0       0       0       0       0       0       0       0       0       0       0       0       
      +0       0       0       0       0       0       0       0       0       0       0       0       0       0       0       
      +0       0       0       0       0       0
  7113 ;;      Locals:         0       0       0       0       0       0       0       0       0       0       0       0       
      +0       0       0       0       0       0       0       0       0       0       0       0       0       0       0       
      +0       0       0       0       0       0
  7114 ;;      Temps:          0       0       0       0       0       0       0       0       0       0       0       0       
      +0       0       0       0       0       0       0       0       0       0       0       0       0       0       0       
      +0       0       0       0       0       0
  7115 ;;      Totals:         0       0       0       0       0       0       0       0       0       0       0       0       
      +0       0       0       0       0       0       0       0       0       0       0       0       0       0       0       
      +0       0       0       0       0       0
  7116 ;;Total ram usage:        0 bytes
  7117 ;; Hardware stack levels used: 1
  7118 ;; This function calls:
  7119 ;;		Nothing
  7120 ;; This function is called by:
  7121 ;;		_I2C1_ERROR_ISR
  7122 ;; This function uses a non-reentrant model
  7123 ;;
  7124                           
  7125                           	psect	text62
  7126   011608                     __ptext62:
  7127                           	callstack 0
  7128   011608                     _I2C1_IsNack:
  7129                           	callstack 113
  7130   011608                     
  7131                           ;mcc_generated_files/i2c_host/src/i2c1.c: 425:     return I2C1CON1bits.ACKSTAT;
  7132   011608  0102               	movlb	2	; () banked
  7133   01160A  BB95               	btfsc	149,5,b	;volatile
  7134   01160C  EF0A  F08B         	goto	i2u188_41
  7135   011610  EF0D  F08B         	goto	i2u188_40
  7136   011614                     i2u188_41:
  7137   011614  0E01               	movlw	1
  7138   011616  EF0E  F08B         	goto	i2u188_46
  7139   01161A                     i2u188_40:
  7140   01161A  0E00               	movlw	0
  7141   01161C                     i2u188_46:
  7142   01161C                     
  7143                           ; BSR set to: 2
  7144   01161C  0012               	return		;funcret
  7145   01161E                     __end_of_I2C1_IsNack:
  7146                           	callstack 0
  7147                           
  7148 ;; *************** function _I2C1_IsData *****************
  7149 ;; Defined at:
  7150 ;;		line 438 in file "mcc_generated_files/i2c_host/src/i2c1.c"
  7151 ;; Parameters:    Size  Location     Type
  7152 ;;		None
  7153 ;; Auto vars:     Size  Location     Type
  7154 ;;		None
  7155 ;; Return value:  Size  Location     Type
  7156 ;;                  1    wreg      _Bool 
  7157 ;; Registers used:
  7158 ;;		wreg
  7159 ;; Tracked objects:
  7160 ;;		On entry : 0/0
  7161 ;;		On exit  : 0/0
  7162 ;;		Unchanged: 0/0
  7163 ;; Data sizes:     COMRAM   BANK5   BANK6   BANK7   BANK8   BANK9  BANK10  BANK11  BANK12  BANK13  BANK14  BANK15  BANK1
      +6  BANK17  BANK18  BANK19  BANK20  BANK21  BANK22  BANK23  BANK24  BANK25  BANK26  BANK27  BANK28  BANK29  BANK30  BANK3
      +1  BANK32  BANK33  BANK34  BANK35  BANK36
  7164 ;;      Params:         0       0       0       0       0       0       0       0       0       0       0       0       
      +0       0       0       0       0       0       0       0       0       0       0       0       0       0       0       
      +0       0       0       0       0       0
  7165 ;;      Locals:         0       0       0       0       0       0       0       0       0       0       0       0       
      +0       0       0       0       0       0       0       0       0       0       0       0       0       0       0       
      +0       0       0       0       0       0
  7166 ;;      Temps:          0       0       0       0       0       0       0       0       0       0       0       0       
      +0       0       0       0       0       0       0       0       0       0       0       0       0       0       0       
      +0       0       0       0       0       0
  7167 ;;      Totals:         0       0       0       0       0       0       0       0       0       0       0       0       
      +0       0       0       0       0       0       0       0       0       0       0       0       0       0       0       
      +0       0       0       0       0       0
  7168 ;;Total ram usage:        0 bytes
  7169 ;; Hardware stack levels used: 1
  7170 ;; This function calls:
  7171 ;;		Nothing
  7172 ;; This function is called by:
  7173 ;;		_I2C1_ERROR_ISR
  7174 ;; This function uses a non-reentrant model
  7175 ;;
  7176                           
  7177                           	psect	text63
  7178   01161E                     __ptext63:
  7179                           	callstack 0
  7180   01161E                     _I2C1_IsData:
  7181                           	callstack 113
  7182   01161E                     
  7183                           ;mcc_generated_files/i2c_host/src/i2c1.c: 440:     return I2C1STAT0bits.D;
  7184   01161E  0102               	movlb	2	; () banked
  7185   011620  B798               	btfsc	152,3,b	;volatile
  7186   011622  EF15  F08B         	goto	i2u189_41
  7187   011626  EF18  F08B         	goto	i2u189_40
  7188   01162A                     i2u189_41:
  7189   01162A  0E01               	movlw	1
  7190   01162C  EF19  F08B         	goto	i2u189_46
  7191   011630                     i2u189_40:
  7192   011630  0E00               	movlw	0
  7193   011632                     i2u189_46:
  7194   011632                     
  7195                           ; BSR set to: 2
  7196   011632  0012               	return		;funcret
  7197   011634                     __end_of_I2C1_IsData:
  7198                           	callstack 0
  7199                           
  7200 ;; *************** function _I2C1_IsBusTimeOut *****************
  7201 ;; Defined at:
  7202 ;;		line 433 in file "mcc_generated_files/i2c_host/src/i2c1.c"
  7203 ;; Parameters:    Size  Location     Type
  7204 ;;		None
  7205 ;; Auto vars:     Size  Location     Type
  7206 ;;		None
  7207 ;; Return value:  Size  Location     Type
  7208 ;;                  1    wreg      _Bool 
  7209 ;; Registers used:
  7210 ;;		wreg
  7211 ;; Tracked objects:
  7212 ;;		On entry : 0/0
  7213 ;;		On exit  : 0/0
  7214 ;;		Unchanged: 0/0
  7215 ;; Data sizes:     COMRAM   BANK5   BANK6   BANK7   BANK8   BANK9  BANK10  BANK11  BANK12  BANK13  BANK14  BANK15  BANK1
      +6  BANK17  BANK18  BANK19  BANK20  BANK21  BANK22  BANK23  BANK24  BANK25  BANK26  BANK27  BANK28  BANK29  BANK30  BANK3
      +1  BANK32  BANK33  BANK34  BANK35  BANK36
  7216 ;;      Params:         0       0       0       0       0       0       0       0       0       0       0       0       
      +0       0       0       0       0       0       0       0       0       0       0       0       0       0       0       
      +0       0       0       0       0       0
  7217 ;;      Locals:         0       0       0       0       0       0       0       0       0       0       0       0       
      +0       0       0       0       0       0       0       0       0       0       0       0       0       0       0       
      +0       0       0       0       0       0
  7218 ;;      Temps:          0       0       0       0       0       0       0       0       0       0       0       0       
      +0       0       0       0       0       0       0       0       0       0       0       0       0       0       0       
      +0       0       0       0       0       0
  7219 ;;      Totals:         0       0       0       0       0       0       0       0       0       0       0       0       
      +0       0       0       0       0       0       0       0       0       0       0       0       0       0       0       
      +0       0       0       0       0       0
  7220 ;;Total ram usage:        0 bytes
  7221 ;; Hardware stack levels used: 1
  7222 ;; This function calls:
  7223 ;;		Nothing
  7224 ;; This function is called by:
  7225 ;;		_I2C1_ERROR_ISR
  7226 ;; This function uses a non-reentrant model
  7227 ;;
  7228                           
  7229                           	psect	text64
  7230   011634                     __ptext64:
  7231                           	callstack 0
  7232   011634                     _I2C1_IsBusTimeOut:
  7233                           	callstack 113
  7234   011634                     
  7235                           ;mcc_generated_files/i2c_host/src/i2c1.c: 435:     return I2C1ERRbits.BTOIF;
  7236   011634  0102               	movlb	2	; () banked
  7237   011636  BD97               	btfsc	151,6,b	;volatile
  7238   011638  EF20  F08B         	goto	i2u190_41
  7239   01163C  EF23  F08B         	goto	i2u190_40
  7240   011640                     i2u190_41:
  7241   011640  0E01               	movlw	1
  7242   011642  EF24  F08B         	goto	i2u190_46
  7243   011646                     i2u190_40:
  7244   011646  0E00               	movlw	0
  7245   011648                     i2u190_46:
  7246   011648                     
  7247                           ; BSR set to: 2
  7248   011648  0012               	return		;funcret
  7249   01164A                     __end_of_I2C1_IsBusTimeOut:
  7250                           	callstack 0
  7251                           
  7252 ;; *************** function _I2C1_IsBusCol *****************
  7253 ;; Defined at:
  7254 ;;		line 428 in file "mcc_generated_files/i2c_host/src/i2c1.c"
  7255 ;; Parameters:    Size  Location     Type
  7256 ;;		None
  7257 ;; Auto vars:     Size  Location     Type
  7258 ;;		None
  7259 ;; Return value:  Size  Location     Type
  7260 ;;                  1    wreg      _Bool 
  7261 ;; Registers used:
  7262 ;;		wreg
  7263 ;; Tracked objects:
  7264 ;;		On entry : 0/0
  7265 ;;		On exit  : 0/0
  7266 ;;		Unchanged: 0/0
  7267 ;; Data sizes:     COMRAM   BANK5   BANK6   BANK7   BANK8   BANK9  BANK10  BANK11  BANK12  BANK13  BANK14  BANK15  BANK1
      +6  BANK17  BANK18  BANK19  BANK20  BANK21  BANK22  BANK23  BANK24  BANK25  BANK26  BANK27  BANK28  BANK29  BANK30  BANK3
      +1  BANK32  BANK33  BANK34  BANK35  BANK36
  7268 ;;      Params:         0       0       0       0       0       0       0       0       0       0       0       0       
      +0       0       0       0       0       0       0       0       0       0       0       0       0       0       0       
      +0       0       0       0       0       0
  7269 ;;      Locals:         0       0       0       0       0       0       0       0       0       0       0       0       
      +0       0       0       0       0       0       0       0       0       0       0       0       0       0       0       
      +0       0       0       0       0       0
  7270 ;;      Temps:          0       0       0       0       0       0       0       0       0       0       0       0       
      +0       0       0       0       0       0       0       0       0       0       0       0       0       0       0       
      +0       0       0       0       0       0
  7271 ;;      Totals:         0       0       0       0       0       0       0       0       0       0       0       0       
      +0       0       0       0       0       0       0       0       0       0       0       0       0       0       0       
      +0       0       0       0       0       0
  7272 ;;Total ram usage:        0 bytes
  7273 ;; Hardware stack levels used: 1
  7274 ;; This function calls:
  7275 ;;		Nothing
  7276 ;; This function is called by:
  7277 ;;		_I2C1_ERROR_ISR
  7278 ;; This function uses a non-reentrant model
  7279 ;;
  7280                           
  7281                           	psect	text65
  7282   01164A                     __ptext65:
  7283                           	callstack 0
  7284   01164A                     _I2C1_IsBusCol:
  7285                           	callstack 113
  7286   01164A                     
  7287                           ;mcc_generated_files/i2c_host/src/i2c1.c: 430:     return I2C1ERRbits.BCLIF;
  7288   01164A  0102               	movlb	2	; () banked
  7289   01164C  BB97               	btfsc	151,5,b	;volatile
  7290   01164E  EF2B  F08B         	goto	i2u185_41
  7291   011652  EF2E  F08B         	goto	i2u185_40
  7292   011656                     i2u185_41:
  7293   011656  0E01               	movlw	1
  7294   011658  EF2F  F08B         	goto	i2u185_46
  7295   01165C                     i2u185_40:
  7296   01165C  0E00               	movlw	0
  7297   01165E                     i2u185_46:
  7298   01165E                     
  7299                           ; BSR set to: 2
  7300   01165E  0012               	return		;funcret
  7301   011660                     __end_of_I2C1_IsBusCol:
  7302                           	callstack 0
  7303                           
  7304 ;; *************** function _I2C1_IsAddr *****************
  7305 ;; Defined at:
  7306 ;;		line 443 in file "mcc_generated_files/i2c_host/src/i2c1.c"
  7307 ;; Parameters:    Size  Location     Type
  7308 ;;		None
  7309 ;; Auto vars:     Size  Location     Type
  7310 ;;		None
  7311 ;; Return value:  Size  Location     Type
  7312 ;;                  1    wreg      _Bool 
  7313 ;; Registers used:
  7314 ;;		wreg
  7315 ;; Tracked objects:
  7316 ;;		On entry : 0/0
  7317 ;;		On exit  : 0/0
  7318 ;;		Unchanged: 0/0
  7319 ;; Data sizes:     COMRAM   BANK5   BANK6   BANK7   BANK8   BANK9  BANK10  BANK11  BANK12  BANK13  BANK14  BANK15  BANK1
      +6  BANK17  BANK18  BANK19  BANK20  BANK21  BANK22  BANK23  BANK24  BANK25  BANK26  BANK27  BANK28  BANK29  BANK30  BANK3
      +1  BANK32  BANK33  BANK34  BANK35  BANK36
  7320 ;;      Params:         0       0       0       0       0       0       0       0       0       0       0       0       
      +0       0       0       0       0       0       0       0       0       0       0       0       0       0       0       
      +0       0       0       0       0       0
  7321 ;;      Locals:         0       0       0       0       0       0       0       0       0       0       0       0       
      +0       0       0       0       0       0       0       0       0       0       0       0       0       0       0       
      +0       0       0       0       0       0
  7322 ;;      Temps:          0       0       0       0       0       0       0       0       0       0       0       0       
      +0       0       0       0       0       0       0       0       0       0       0       0       0       0       0       
      +0       0       0       0       0       0
  7323 ;;      Totals:         0       0       0       0       0       0       0       0       0       0       0       0       
      +0       0       0       0       0       0       0       0       0       0       0       0       0       0       0       
      +0       0       0       0       0       0
  7324 ;;Total ram usage:        0 bytes
  7325 ;; Hardware stack levels used: 1
  7326 ;; This function calls:
  7327 ;;		Nothing
  7328 ;; This function is called by:
  7329 ;;		_I2C1_ERROR_ISR
  7330 ;; This function uses a non-reentrant model
  7331 ;;
  7332                           
  7333                           	psect	text66
  7334   011660                     __ptext66:
  7335                           	callstack 0
  7336   011660                     _I2C1_IsAddr:
  7337                           	callstack 113
  7338   011660                     
  7339                           ;mcc_generated_files/i2c_host/src/i2c1.c: 445:     return !I2C1STAT0bits.D;
  7340   011660  0102               	movlb	2	; () banked
  7341   011662  A798               	btfss	152,3,b	;volatile
  7342   011664  EF36  F08B         	goto	i2u186_41
  7343   011668  EF39  F08B         	goto	i2u186_40
  7344   01166C                     i2u186_41:
  7345   01166C  0E01               	movlw	1
  7346   01166E  EF3A  F08B         	goto	i2u187_40
  7347   011672                     i2u186_40:
  7348   011672  0E00               	movlw	0
  7349   011674                     i2u187_40:
  7350   011674                     
  7351                           ; BSR set to: 2
  7352   011674  0012               	return		;funcret
  7353   011676                     __end_of_I2C1_IsAddr:
  7354                           	callstack 0
  7355                           
  7356 ;; *************** function _I2C1_DefaultCallback *****************
  7357 ;; Defined at:
  7358 ;;		line 339 in file "mcc_generated_files/i2c_host/src/i2c1.c"
  7359 ;; Parameters:    Size  Location     Type
  7360 ;;		None
  7361 ;; Auto vars:     Size  Location     Type
  7362 ;;		None
  7363 ;; Return value:  Size  Location     Type
  7364 ;;                  1    wreg      void 
  7365 ;; Registers used:
  7366 ;;		None
  7367 ;; Tracked objects:
  7368 ;;		On entry : 0/0
  7369 ;;		On exit  : 0/0
  7370 ;;		Unchanged: 0/0
  7371 ;; Data sizes:     COMRAM   BANK5   BANK6   BANK7   BANK8   BANK9  BANK10  BANK11  BANK12  BANK13  BANK14  BANK15  BANK1
      +6  BANK17  BANK18  BANK19  BANK20  BANK21  BANK22  BANK23  BANK24  BANK25  BANK26  BANK27  BANK28  BANK29  BANK30  BANK3
      +1  BANK32  BANK33  BANK34  BANK35  BANK36
  7372 ;;      Params:         0       0       0       0       0       0       0       0       0       0       0       0       
      +0       0       0       0       0       0       0       0       0       0       0       0       0       0       0       
      +0       0       0       0       0       0
  7373 ;;      Locals:         0       0       0       0       0       0       0       0       0       0       0       0       
      +0       0       0       0       0       0       0       0       0       0       0       0       0       0       0       
      +0       0       0       0       0       0
  7374 ;;      Temps:          0       0       0       0       0       0       0       0       0       0       0       0       
      +0       0       0       0       0       0       0       0       0       0       0       0       0       0       0       
      +0       0       0       0       0       0
  7375 ;;      Totals:         0       0       0       0       0       0       0       0       0       0       0       0       
      +0       0       0       0       0       0       0       0       0       0       0       0       0       0       0       
      +0       0       0       0       0       0
  7376 ;;Total ram usage:        0 bytes
  7377 ;; Hardware stack levels used: 1
  7378 ;; This function calls:
  7379 ;;		Nothing
  7380 ;; This function is called by:
  7381 ;;		_I2C1_Initialize
  7382 ;;		_I2C1_Deinitialize
  7383 ;;		_I2C1_ERROR_ISR
  7384 ;; This function uses a non-reentrant model
  7385 ;;
  7386                           
  7387                           	psect	text67
  7388   011748                     __ptext67:
  7389                           	callstack 0
  7390   011748                     _I2C1_DefaultCallback:
  7391                           	callstack 113
  7392   011748  0012               	return		;funcret
  7393   01174A                     __end_of_I2C1_DefaultCallback:
  7394                           	callstack 0
  7395                           
  7396 ;; *************** function _I2C1_BusReset *****************
  7397 ;; Defined at:
  7398 ;;		line 377 in file "mcc_generated_files/i2c_host/src/i2c1.c"
  7399 ;; Parameters:    Size  Location     Type
  7400 ;;		None
  7401 ;; Auto vars:     Size  Location     Type
  7402 ;;		None
  7403 ;; Return value:  Size  Location     Type
  7404 ;;                  1    wreg      void 
  7405 ;; Registers used:
  7406 ;;		wreg, status,2, cstack
  7407 ;; Tracked objects:
  7408 ;;		On entry : 0/0
  7409 ;;		On exit  : 0/0
  7410 ;;		Unchanged: 0/0
  7411 ;; Data sizes:     COMRAM   BANK5   BANK6   BANK7   BANK8   BANK9  BANK10  BANK11  BANK12  BANK13  BANK14  BANK15  BANK1
      +6  BANK17  BANK18  BANK19  BANK20  BANK21  BANK22  BANK23  BANK24  BANK25  BANK26  BANK27  BANK28  BANK29  BANK30  BANK3
      +1  BANK32  BANK33  BANK34  BANK35  BANK36
  7412 ;;      Params:         0       0       0       0       0       0       0       0       0       0       0       0       
      +0       0       0       0       0       0       0       0       0       0       0       0       0       0       0       
      +0       0       0       0       0       0
  7413 ;;      Locals:         0       0       0       0       0       0       0       0       0       0       0       0       
      +0       0       0       0       0       0       0       0       0       0       0       0       0       0       0       
      +0       0       0       0       0       0
  7414 ;;      Temps:          0       0       0       0       0       0       0       0       0       0       0       0       
      +0       0       0       0       0       0       0       0       0       0       0       0       0       0       0       
      +0       0       0       0       0       0
  7415 ;;      Totals:         0       0       0       0       0       0       0       0       0       0       0       0       
      +0       0       0       0       0       0       0       0       0       0       0       0       0       0       0       
      +0       0       0       0       0       0
  7416 ;;Total ram usage:        0 bytes
  7417 ;; Hardware stack levels used: 1
  7418 ;; Hardware stack levels required when called: 1
  7419 ;; This function calls:
  7420 ;;		_I2C1_BufferClear
  7421 ;;		_I2C1_ErrorFlagsClear
  7422 ;;		_I2C1_InterruptsClear
  7423 ;;		_I2C1_InterruptsDisable
  7424 ;;		i2_I2C1_InterruptsEnable
  7425 ;; This function is called by:
  7426 ;;		_I2C1_ERROR_ISR
  7427 ;; This function uses a non-reentrant model
  7428 ;;
  7429                           
  7430                           	psect	text68
  7431   0112AE                     __ptext68:
  7432                           	callstack 0
  7433   0112AE                     _I2C1_BusReset:
  7434                           	callstack 112
  7435   0112AE                     
  7436                           ;mcc_generated_files/i2c_host/src/i2c1.c: 379:     I2C1_InterruptsClear();
  7437   0112AE  EC8F  F08B         	call	_I2C1_InterruptsClear	;wreg free
  7438   0112B2                     
  7439                           ;mcc_generated_files/i2c_host/src/i2c1.c: 380:     I2C1_ErrorFlagsClear();
  7440   0112B2  EC75  F08B         	call	_I2C1_ErrorFlagsClear	;wreg free
  7441   0112B6                     
  7442                           ;mcc_generated_files/i2c_host/src/i2c1.c: 381:     I2C1_InterruptsDisable();
  7443   0112B6  EC4F  F08B         	call	_I2C1_InterruptsDisable	;wreg free
  7444   0112BA                     
  7445                           ;mcc_generated_files/i2c_host/src/i2c1.c: 382:     I2C1_BufferClear();
  7446   0112BA  EC7A  F08B         	call	_I2C1_BufferClear	;wreg free
  7447   0112BE                     
  7448                           ;mcc_generated_files/i2c_host/src/i2c1.c: 383:     I2C1CON0bits.EN = 0;
  7449   0112BE  0102               	movlb	2	; () banked
  7450   0112C0  9F94               	bcf	148,7,b	;volatile
  7451   0112C2                     
  7452                           ; BSR set to: 2
  7453                           ;mcc_generated_files/i2c_host/src/i2c1.c: 384:     I2C1_InterruptsEnable();
  7454   0112C2  EC45  F08B         	call	i2_I2C1_InterruptsEnable	;wreg free
  7455   0112C6                     
  7456                           ;mcc_generated_files/i2c_host/src/i2c1.c: 388:     I2C1PIEbits.SCIE = 0;
  7457   0112C6  0102               	movlb	2	; () banked
  7458   0112C8  919B               	bcf	155,0,b	;volatile
  7459   0112CA                     
  7460                           ; BSR set to: 2
  7461                           ;mcc_generated_files/i2c_host/src/i2c1.c: 389:     I2C1PIEbits.PCIE = 0;
  7462   0112CA  959B               	bcf	155,2,b	;volatile
  7463   0112CC                     
  7464                           ; BSR set to: 2
  7465                           ;mcc_generated_files/i2c_host/src/i2c1.c: 390:     I2C1CON0bits.EN = 1;
  7466   0112CC  8F94               	bsf	148,7,b	;volatile
  7467   0112CE                     
  7468                           ; BSR set to: 2
  7469                           ;mcc_generated_files/i2c_host/src/i2c1.c: 391:     _delay((unsigned long)((1)*(48000000/
      +                          4000000.0)));
  7470   0112CE  0E04               	movlw	4
  7471   0112D0                     i2u316_47:
  7472   0112D0  2EE8               	decfsz	wreg,f,c
  7473   0112D2  D7FE               	bra	i2u316_47
  7474   0112D4                     
  7475                           ;mcc_generated_files/i2c_host/src/i2c1.c: 392:     __nop();
  7476   0112D4  F000               	nop	
  7477   0112D6                     
  7478                           ;mcc_generated_files/i2c_host/src/i2c1.c: 393:     __nop();
  7479   0112D6  F000               	nop	
  7480   0112D8                     
  7481                           ;mcc_generated_files/i2c_host/src/i2c1.c: 394:     __nop();
  7482   0112D8  F000               	nop	
  7483   0112DA                     
  7484                           ;mcc_generated_files/i2c_host/src/i2c1.c: 395:     __nop();
  7485   0112DA  F000               	nop	
  7486   0112DC                     
  7487                           ;mcc_generated_files/i2c_host/src/i2c1.c: 396:     __nop();
  7488   0112DC  F000               	nop	
  7489   0112DE                     
  7490                           ;mcc_generated_files/i2c_host/src/i2c1.c: 397:     __nop();
  7491   0112DE  F000               	nop	
  7492   0112E0                     
  7493                           ;mcc_generated_files/i2c_host/src/i2c1.c: 398:     I2C1PIRbits.SCIF = 0;
  7494   0112E0  0102               	movlb	2	; () banked
  7495   0112E2  919A               	bcf	154,0,b	;volatile
  7496   0112E4                     
  7497                           ; BSR set to: 2
  7498                           ;mcc_generated_files/i2c_host/src/i2c1.c: 399:     I2C1PIRbits.PCIF = 0;
  7499   0112E4  959A               	bcf	154,2,b	;volatile
  7500   0112E6                     
  7501                           ; BSR set to: 2
  7502                           ;mcc_generated_files/i2c_host/src/i2c1.c: 400:     I2C1PIEbits.PCIE = 1;
  7503   0112E6  859B               	bsf	155,2,b	;volatile
  7504   0112E8                     
  7505                           ; BSR set to: 2
  7506   0112E8  0012               	return		;funcret
  7507   0112EA                     __end_of_I2C1_BusReset:
  7508                           	callstack 0
  7509                           
  7510 ;; *************** function i2_I2C1_InterruptsEnable *****************
  7511 ;; Defined at:
  7512 ;;		line 448 in file "mcc_generated_files/i2c_host/src/i2c1.c"
  7513 ;; Parameters:    Size  Location     Type
  7514 ;;		None
  7515 ;; Auto vars:     Size  Location     Type
  7516 ;;		None
  7517 ;; Return value:  Size  Location     Type
  7518 ;;                  1    wreg      void 
  7519 ;; Registers used:
  7520 ;;		None
  7521 ;; Tracked objects:
  7522 ;;		On entry : 0/0
  7523 ;;		On exit  : 0/0
  7524 ;;		Unchanged: 0/0
  7525 ;; Data sizes:     COMRAM   BANK5   BANK6   BANK7   BANK8   BANK9  BANK10  BANK11  BANK12  BANK13  BANK14  BANK15  BANK1
      +6  BANK17  BANK18  BANK19  BANK20  BANK21  BANK22  BANK23  BANK24  BANK25  BANK26  BANK27  BANK28  BANK29  BANK30  BANK3
      +1  BANK32  BANK33  BANK34  BANK35  BANK36
  7526 ;;      Params:         0       0       0       0       0       0       0       0       0       0       0       0       
      +0       0       0       0       0       0       0       0       0       0       0       0       0       0       0       
      +0       0       0       0       0       0
  7527 ;;      Locals:         0       0       0       0       0       0       0       0       0       0       0       0       
      +0       0       0       0       0       0       0       0       0       0       0       0       0       0       0       
      +0       0       0       0       0       0
  7528 ;;      Temps:          0       0       0       0       0       0       0       0       0       0       0       0       
      +0       0       0       0       0       0       0       0       0       0       0       0       0       0       0       
      +0       0       0       0       0       0
  7529 ;;      Totals:         0       0       0       0       0       0       0       0       0       0       0       0       
      +0       0       0       0       0       0       0       0       0       0       0       0       0       0       0       
      +0       0       0       0       0       0
  7530 ;;Total ram usage:        0 bytes
  7531 ;; Hardware stack levels used: 1
  7532 ;; This function calls:
  7533 ;;		Nothing
  7534 ;; This function is called by:
  7535 ;;		_I2C1_BusReset
  7536 ;; This function uses a non-reentrant model
  7537 ;;
  7538                           
  7539                           	psect	text69
  7540   01168A                     __ptext69:
  7541                           	callstack 0
  7542   01168A                     i2_I2C1_InterruptsEnable:
  7543                           	callstack 112
  7544   01168A                     
  7545                           ;mcc_generated_files/i2c_host/src/i2c1.c: 450:     PIE7bits.I2C1IE = 1;
  7546   01168A  84A5               	bsf	165,2,c	;volatile
  7547                           
  7548                           ;mcc_generated_files/i2c_host/src/i2c1.c: 451:     PIE7bits.I2C1EIE = 1;
  7549   01168C  86A5               	bsf	165,3,c	;volatile
  7550                           
  7551                           ;mcc_generated_files/i2c_host/src/i2c1.c: 452:     PIE7bits.I2C1RXIE = 1;
  7552   01168E  80A5               	bsf	165,0,c	;volatile
  7553                           
  7554                           ;mcc_generated_files/i2c_host/src/i2c1.c: 453:     PIE7bits.I2C1TXIE = 1;
  7555   011690  82A5               	bsf	165,1,c	;volatile
  7556                           
  7557                           ;mcc_generated_files/i2c_host/src/i2c1.c: 455:     I2C1PIEbits.PCIE = 1;
  7558   011692  0102               	movlb	2	; () banked
  7559   011694  859B               	bsf	155,2,b	;volatile
  7560                           
  7561                           ;mcc_generated_files/i2c_host/src/i2c1.c: 456:     I2C1PIEbits.RSCIE = 1;
  7562   011696  839B               	bsf	155,1,b	;volatile
  7563                           
  7564                           ;mcc_generated_files/i2c_host/src/i2c1.c: 457:     I2C1PIEbits.CNTIE = 1;
  7565   011698  8F9B               	bsf	155,7,b	;volatile
  7566                           
  7567                           ;mcc_generated_files/i2c_host/src/i2c1.c: 458:     I2C1ERRbits.NACKIE = 1;
  7568   01169A  8197               	bsf	151,0,b	;volatile
  7569   01169C                     
  7570                           ; BSR set to: 2
  7571   01169C  0012               	return		;funcret
  7572   01169E                     __end_ofi2_I2C1_InterruptsEnable:
  7573                           	callstack 0
  7574                           
  7575 ;; *************** function _I2C1_InterruptsDisable *****************
  7576 ;; Defined at:
  7577 ;;		line 461 in file "mcc_generated_files/i2c_host/src/i2c1.c"
  7578 ;; Parameters:    Size  Location     Type
  7579 ;;		None
  7580 ;; Auto vars:     Size  Location     Type
  7581 ;;		None
  7582 ;; Return value:  Size  Location     Type
  7583 ;;                  1    wreg      void 
  7584 ;; Registers used:
  7585 ;;		wreg, status,2
  7586 ;; Tracked objects:
  7587 ;;		On entry : 0/0
  7588 ;;		On exit  : 0/0
  7589 ;;		Unchanged: 0/0
  7590 ;; Data sizes:     COMRAM   BANK5   BANK6   BANK7   BANK8   BANK9  BANK10  BANK11  BANK12  BANK13  BANK14  BANK15  BANK1
      +6  BANK17  BANK18  BANK19  BANK20  BANK21  BANK22  BANK23  BANK24  BANK25  BANK26  BANK27  BANK28  BANK29  BANK30  BANK3
      +1  BANK32  BANK33  BANK34  BANK35  BANK36
  7591 ;;      Params:         0       0       0       0       0       0       0       0       0       0       0       0       
      +0       0       0       0       0       0       0       0       0       0       0       0       0       0       0       
      +0       0       0       0       0       0
  7592 ;;      Locals:         0       0       0       0       0       0       0       0       0       0       0       0       
      +0       0       0       0       0       0       0       0       0       0       0       0       0       0       0       
      +0       0       0       0       0       0
  7593 ;;      Temps:          0       0       0       0       0       0       0       0       0       0       0       0       
      +0       0       0       0       0       0       0       0       0       0       0       0       0       0       0       
      +0       0       0       0       0       0
  7594 ;;      Totals:         0       0       0       0       0       0       0       0       0       0       0       0       
      +0       0       0       0       0       0       0       0       0       0       0       0       0       0       0       
      +0       0       0       0       0       0
  7595 ;;Total ram usage:        0 bytes
  7596 ;; Hardware stack levels used: 1
  7597 ;; This function calls:
  7598 ;;		Nothing
  7599 ;; This function is called by:
  7600 ;;		_I2C1_BusReset
  7601 ;;		_I2C1_Deinitialize
  7602 ;; This function uses a non-reentrant model
  7603 ;;
  7604                           
  7605                           	psect	text70
  7606   01169E                     __ptext70:
  7607                           	callstack 0
  7608   01169E                     _I2C1_InterruptsDisable:
  7609                           	callstack 112
  7610   01169E                     
  7611                           ;mcc_generated_files/i2c_host/src/i2c1.c: 463:     PIE7bits.I2C1IE = 0;
  7612   01169E  94A5               	bcf	165,2,c	;volatile
  7613                           
  7614                           ;mcc_generated_files/i2c_host/src/i2c1.c: 464:     PIE7bits.I2C1EIE = 0;
  7615   0116A0  96A5               	bcf	165,3,c	;volatile
  7616                           
  7617                           ;mcc_generated_files/i2c_host/src/i2c1.c: 465:     PIE7bits.I2C1RXIE = 0;
  7618   0116A2  90A5               	bcf	165,0,c	;volatile
  7619                           
  7620                           ;mcc_generated_files/i2c_host/src/i2c1.c: 466:     PIE7bits.I2C1TXIE = 0;
  7621   0116A4  92A5               	bcf	165,1,c	;volatile
  7622   0116A6                     
  7623                           ;mcc_generated_files/i2c_host/src/i2c1.c: 467:     I2C1PIE = 0x00;
  7624   0116A6  0E00               	movlw	0
  7625   0116A8  0102               	movlb	2	; () banked
  7626   0116AA  6F9B               	movwf	155,b	;volatile
  7627                           
  7628                           ;mcc_generated_files/i2c_host/src/i2c1.c: 468:     I2C1ERR = 0x00;
  7629   0116AC  0E00               	movlw	0
  7630   0116AE  6F97               	movwf	151,b	;volatile
  7631   0116B0                     
  7632                           ; BSR set to: 2
  7633   0116B0  0012               	return		;funcret
  7634   0116B2                     __end_of_I2C1_InterruptsDisable:
  7635                           	callstack 0
  7636                           
  7637 ;; *************** function _I2C1_InterruptsClear *****************
  7638 ;; Defined at:
  7639 ;;		line 471 in file "mcc_generated_files/i2c_host/src/i2c1.c"
  7640 ;; Parameters:    Size  Location     Type
  7641 ;;		None
  7642 ;; Auto vars:     Size  Location     Type
  7643 ;;		None
  7644 ;; Return value:  Size  Location     Type
  7645 ;;                  1    wreg      void 
  7646 ;; Registers used:
  7647 ;;		wreg, status,2
  7648 ;; Tracked objects:
  7649 ;;		On entry : 0/0
  7650 ;;		On exit  : 0/0
  7651 ;;		Unchanged: 0/0
  7652 ;; Data sizes:     COMRAM   BANK5   BANK6   BANK7   BANK8   BANK9  BANK10  BANK11  BANK12  BANK13  BANK14  BANK15  BANK1
      +6  BANK17  BANK18  BANK19  BANK20  BANK21  BANK22  BANK23  BANK24  BANK25  BANK26  BANK27  BANK28  BANK29  BANK30  BANK3
      +1  BANK32  BANK33  BANK34  BANK35  BANK36
  7653 ;;      Params:         0       0       0       0       0       0       0       0       0       0       0       0       
      +0       0       0       0       0       0       0       0       0       0       0       0       0       0       0       
      +0       0       0       0       0       0
  7654 ;;      Locals:         0       0       0       0       0       0       0       0       0       0       0       0       
      +0       0       0       0       0       0       0       0       0       0       0       0       0       0       0       
      +0       0       0       0       0       0
  7655 ;;      Temps:          0       0       0       0       0       0       0       0       0       0       0       0       
      +0       0       0       0       0       0       0       0       0       0       0       0       0       0       0       
      +0       0       0       0       0       0
  7656 ;;      Totals:         0       0       0       0       0       0       0       0       0       0       0       0       
      +0       0       0       0       0       0       0       0       0       0       0       0       0       0       0       
      +0       0       0       0       0       0
  7657 ;;Total ram usage:        0 bytes
  7658 ;; Hardware stack levels used: 1
  7659 ;; This function calls:
  7660 ;;		Nothing
  7661 ;; This function is called by:
  7662 ;;		_I2C1_Close
  7663 ;;		_I2C1_BusReset
  7664 ;; This function uses a non-reentrant model
  7665 ;;
  7666                           
  7667                           	psect	text71
  7668   01171E                     __ptext71:
  7669                           	callstack 0
  7670   01171E                     _I2C1_InterruptsClear:
  7671                           	callstack 112
  7672   01171E                     
  7673                           ;mcc_generated_files/i2c_host/src/i2c1.c: 473:     I2C1PIR = 0x00;
  7674   01171E  0E00               	movlw	0
  7675   011720  0102               	movlb	2	; () banked
  7676   011722  6F9A               	movwf	154,b	;volatile
  7677   011724                     
  7678                           ; BSR set to: 2
  7679   011724  0012               	return		;funcret
  7680   011726                     __end_of_I2C1_InterruptsClear:
  7681                           	callstack 0
  7682                           
  7683 ;; *************** function _I2C1_ErrorFlagsClear *****************
  7684 ;; Defined at:
  7685 ;;		line 476 in file "mcc_generated_files/i2c_host/src/i2c1.c"
  7686 ;; Parameters:    Size  Location     Type
  7687 ;;		None
  7688 ;; Auto vars:     Size  Location     Type
  7689 ;;		None
  7690 ;; Return value:  Size  Location     Type
  7691 ;;                  1    wreg      void 
  7692 ;; Registers used:
  7693 ;;		None
  7694 ;; Tracked objects:
  7695 ;;		On entry : 0/0
  7696 ;;		On exit  : 0/0
  7697 ;;		Unchanged: 0/0
  7698 ;; Data sizes:     COMRAM   BANK5   BANK6   BANK7   BANK8   BANK9  BANK10  BANK11  BANK12  BANK13  BANK14  BANK15  BANK1
      +6  BANK17  BANK18  BANK19  BANK20  BANK21  BANK22  BANK23  BANK24  BANK25  BANK26  BANK27  BANK28  BANK29  BANK30  BANK3
      +1  BANK32  BANK33  BANK34  BANK35  BANK36
  7699 ;;      Params:         0       0       0       0       0       0       0       0       0       0       0       0       
      +0       0       0       0       0       0       0       0       0       0       0       0       0       0       0       
      +0       0       0       0       0       0
  7700 ;;      Locals:         0       0       0       0       0       0       0       0       0       0       0       0       
      +0       0       0       0       0       0       0       0       0       0       0       0       0       0       0       
      +0       0       0       0       0       0
  7701 ;;      Temps:          0       0       0       0       0       0       0       0       0       0       0       0       
      +0       0       0       0       0       0       0       0       0       0       0       0       0       0       0       
      +0       0       0       0       0       0
  7702 ;;      Totals:         0       0       0       0       0       0       0       0       0       0       0       0       
      +0       0       0       0       0       0       0       0       0       0       0       0       0       0       0       
      +0       0       0       0       0       0
  7703 ;;Total ram usage:        0 bytes
  7704 ;; Hardware stack levels used: 1
  7705 ;; This function calls:
  7706 ;;		Nothing
  7707 ;; This function is called by:
  7708 ;;		_I2C1_Close
  7709 ;;		_I2C1_BusReset
  7710 ;; This function uses a non-reentrant model
  7711 ;;
  7712                           
  7713                           	psect	text72
  7714   0116EA                     __ptext72:
  7715                           	callstack 0
  7716   0116EA                     _I2C1_ErrorFlagsClear:
  7717                           	callstack 112
  7718   0116EA                     
  7719                           ;mcc_generated_files/i2c_host/src/i2c1.c: 478:     I2C1ERRbits.BCLIF = 0;
  7720   0116EA  0102               	movlb	2	; () banked
  7721   0116EC  9B97               	bcf	151,5,b	;volatile
  7722                           
  7723                           ;mcc_generated_files/i2c_host/src/i2c1.c: 479:     I2C1ERRbits.BTOIF = 0;
  7724   0116EE  9D97               	bcf	151,6,b	;volatile
  7725                           
  7726                           ;mcc_generated_files/i2c_host/src/i2c1.c: 480:     I2C1ERRbits.NACKIF = 0;
  7727   0116F0  9997               	bcf	151,4,b	;volatile
  7728   0116F2                     
  7729                           ; BSR set to: 2
  7730   0116F2  0012               	return		;funcret
  7731   0116F4                     __end_of_I2C1_ErrorFlagsClear:
  7732                           	callstack 0
  7733                           
  7734 ;; *************** function _I2C1_BufferClear *****************
  7735 ;; Defined at:
  7736 ;;		line 483 in file "mcc_generated_files/i2c_host/src/i2c1.c"
  7737 ;; Parameters:    Size  Location     Type
  7738 ;;		None
  7739 ;; Auto vars:     Size  Location     Type
  7740 ;;		None
  7741 ;; Return value:  Size  Location     Type
  7742 ;;                  1    wreg      void 
  7743 ;; Registers used:
  7744 ;;		wreg, status,2
  7745 ;; Tracked objects:
  7746 ;;		On entry : 0/0
  7747 ;;		On exit  : 0/0
  7748 ;;		Unchanged: 0/0
  7749 ;; Data sizes:     COMRAM   BANK5   BANK6   BANK7   BANK8   BANK9  BANK10  BANK11  BANK12  BANK13  BANK14  BANK15  BANK1
      +6  BANK17  BANK18  BANK19  BANK20  BANK21  BANK22  BANK23  BANK24  BANK25  BANK26  BANK27  BANK28  BANK29  BANK30  BANK3
      +1  BANK32  BANK33  BANK34  BANK35  BANK36
  7750 ;;      Params:         0       0       0       0       0       0       0       0       0       0       0       0       
      +0       0       0       0       0       0       0       0       0       0       0       0       0       0       0       
      +0       0       0       0       0       0
  7751 ;;      Locals:         0       0       0       0       0       0       0       0       0       0       0       0       
      +0       0       0       0       0       0       0       0       0       0       0       0       0       0       0       
      +0       0       0       0       0       0
  7752 ;;      Temps:          0       0       0       0       0       0       0       0       0       0       0       0       
      +0       0       0       0       0       0       0       0       0       0       0       0       0       0       0       
      +0       0       0       0       0       0
  7753 ;;      Totals:         0       0       0       0       0       0       0       0       0       0       0       0       
      +0       0       0       0       0       0       0       0       0       0       0       0       0       0       0       
      +0       0       0       0       0       0
  7754 ;;Total ram usage:        0 bytes
  7755 ;; Hardware stack levels used: 1
  7756 ;; This function calls:
  7757 ;;		Nothing
  7758 ;; This function is called by:
  7759 ;;		_I2C1_Close
  7760 ;;		_I2C1_BusReset
  7761 ;; This function uses a non-reentrant model
  7762 ;;
  7763                           
  7764                           	psect	text73
  7765   0116F4                     __ptext73:
  7766                           	callstack 0
  7767   0116F4                     _I2C1_BufferClear:
  7768                           	callstack 112
  7769   0116F4                     
  7770                           ;mcc_generated_files/i2c_host/src/i2c1.c: 485:     I2C1STAT1 = 0x00;
  7771   0116F4  0E00               	movlw	0
  7772   0116F6  0102               	movlb	2	; () banked
  7773   0116F8  6F99               	movwf	153,b	;volatile
  7774   0116FA                     
  7775                           ; BSR set to: 2
  7776                           ;mcc_generated_files/i2c_host/src/i2c1.c: 486:     I2C1STAT1bits.CLRBF = 1;
  7777   0116FA  8599               	bsf	153,2,b	;volatile
  7778   0116FC                     
  7779                           ; BSR set to: 2
  7780   0116FC  0012               	return		;funcret
  7781   0116FE                     __end_of_I2C1_BufferClear:
  7782                           	callstack 0
  7783                           
  7784                           ;
  7785                           ; Interrupt Vector Table @ 0x8
  7786                           ;
  7787                           
  7788                           	psect	ivt0x8
  7789   000008                     __pivt0x8:
  7790                           	callstack 0
  7791   000008                     ivt0x8_base:
  7792                           	callstack 0
  7793                           
  7794                           ; high-priority vector
  7795   000008  EF02  F082         	goto	_INTERRUPT_InterruptManager
  7796   000018                     	org	16
  7797                           
  7798                           ; low-priority vector
  7799   000018  00FF               	reset	
  7800                           
  7801                           	psect	text74
  7802   000000                     __ptext74:
  7803                           	callstack 0
  7804   000000                     
  7805                           	psect	rparam
  7806   000000                     
  7807                           	psect	idloc
  7808                           
  7809                           ;Config register IDLOC0 @ 0x200000
  7810                           ;	unspecified, using default values
  7811   200000                     	org	2097152
  7812   200000  0FFF               	dw	4095
  7813                           
  7814                           ;Config register IDLOC1 @ 0x200002
  7815                           ;	unspecified, using default values
  7816   200002                     	org	2097154
  7817   200002  0FFF               	dw	4095
  7818                           
  7819                           ;Config register IDLOC2 @ 0x200004
  7820                           ;	unspecified, using default values
  7821   200004                     	org	2097156
  7822   200004  0FFF               	dw	4095
  7823                           
  7824                           ;Config register IDLOC3 @ 0x200006
  7825                           ;	unspecified, using default values
  7826   200006                     	org	2097158
  7827   200006  0FFF               	dw	4095
  7828                           
  7829                           ;Config register IDLOC4 @ 0x200008
  7830                           ;	unspecified, using default values
  7831   200008                     	org	2097160
  7832   200008  0FFF               	dw	4095
  7833                           
  7834                           ;Config register IDLOC5 @ 0x20000A
  7835                           ;	unspecified, using default values
  7836   20000A                     	org	2097162
  7837   20000A  0FFF               	dw	4095
  7838                           
  7839                           ;Config register IDLOC6 @ 0x20000C
  7840                           ;	unspecified, using default values
  7841   20000C                     	org	2097164
  7842   20000C  0FFF               	dw	4095
  7843                           
  7844                           ;Config register IDLOC7 @ 0x20000E
  7845                           ;	unspecified, using default values
  7846   20000E                     	org	2097166
  7847   20000E  0FFF               	dw	4095
  7848                           
  7849                           ;Config register IDLOC8 @ 0x200010
  7850                           ;	unspecified, using default values
  7851   200010                     	org	2097168
  7852   200010  0FFF               	dw	4095
  7853                           
  7854                           ;Config register IDLOC9 @ 0x200012
  7855                           ;	unspecified, using default values
  7856   200012                     	org	2097170
  7857   200012  0FFF               	dw	4095
  7858                           
  7859                           ;Config register IDLOC10 @ 0x200014
  7860                           ;	unspecified, using default values
  7861   200014                     	org	2097172
  7862   200014  0FFF               	dw	4095
  7863                           
  7864                           ;Config register IDLOC11 @ 0x200016
  7865                           ;	unspecified, using default values
  7866   200016                     	org	2097174
  7867   200016  0FFF               	dw	4095
  7868                           
  7869                           ;Config register IDLOC12 @ 0x200018
  7870                           ;	unspecified, using default values
  7871   200018                     	org	2097176
  7872   200018  0FFF               	dw	4095
  7873                           
  7874                           ;Config register IDLOC13 @ 0x20001A
  7875                           ;	unspecified, using default values
  7876   20001A                     	org	2097178
  7877   20001A  0FFF               	dw	4095
  7878                           
  7879                           ;Config register IDLOC14 @ 0x20001C
  7880                           ;	unspecified, using default values
  7881   20001C                     	org	2097180
  7882   20001C  0FFF               	dw	4095
  7883                           
  7884                           ;Config register IDLOC15 @ 0x20001E
  7885                           ;	unspecified, using default values
  7886   20001E                     	org	2097182
  7887   20001E  0FFF               	dw	4095
  7888                           
  7889                           ;Config register IDLOC16 @ 0x200020
  7890                           ;	unspecified, using default values
  7891   200020                     	org	2097184
  7892   200020  0FFF               	dw	4095
  7893                           
  7894                           ;Config register IDLOC17 @ 0x200022
  7895                           ;	unspecified, using default values
  7896   200022                     	org	2097186
  7897   200022  0FFF               	dw	4095
  7898                           
  7899                           ;Config register IDLOC18 @ 0x200024
  7900                           ;	unspecified, using default values
  7901   200024                     	org	2097188
  7902   200024  0FFF               	dw	4095
  7903                           
  7904                           ;Config register IDLOC19 @ 0x200026
  7905                           ;	unspecified, using default values
  7906   200026                     	org	2097190
  7907   200026  0FFF               	dw	4095
  7908                           
  7909                           ;Config register IDLOC20 @ 0x200028
  7910                           ;	unspecified, using default values
  7911   200028                     	org	2097192
  7912   200028  0FFF               	dw	4095
  7913                           
  7914                           ;Config register IDLOC21 @ 0x20002A
  7915                           ;	unspecified, using default values
  7916   20002A                     	org	2097194
  7917   20002A  0FFF               	dw	4095
  7918                           
  7919                           ;Config register IDLOC22 @ 0x20002C
  7920                           ;	unspecified, using default values
  7921   20002C                     	org	2097196
  7922   20002C  0FFF               	dw	4095
  7923                           
  7924                           ;Config register IDLOC23 @ 0x20002E
  7925                           ;	unspecified, using default values
  7926   20002E                     	org	2097198
  7927   20002E  0FFF               	dw	4095
  7928                           
  7929                           ;Config register IDLOC24 @ 0x200030
  7930                           ;	unspecified, using default values
  7931   200030                     	org	2097200
  7932   200030  0FFF               	dw	4095
  7933                           
  7934                           ;Config register IDLOC25 @ 0x200032
  7935                           ;	unspecified, using default values
  7936   200032                     	org	2097202
  7937   200032  0FFF               	dw	4095
  7938                           
  7939                           ;Config register IDLOC26 @ 0x200034
  7940                           ;	unspecified, using default values
  7941   200034                     	org	2097204
  7942   200034  0FFF               	dw	4095
  7943                           
  7944                           ;Config register IDLOC27 @ 0x200036
  7945                           ;	unspecified, using default values
  7946   200036                     	org	2097206
  7947   200036  0FFF               	dw	4095
  7948                           
  7949                           ;Config register IDLOC28 @ 0x200038
  7950                           ;	unspecified, using default values
  7951   200038                     	org	2097208
  7952   200038  0FFF               	dw	4095
  7953                           
  7954                           ;Config register IDLOC29 @ 0x20003A
  7955                           ;	unspecified, using default values
  7956   20003A                     	org	2097210
  7957   20003A  0FFF               	dw	4095
  7958                           
  7959                           ;Config register IDLOC30 @ 0x20003C
  7960                           ;	unspecified, using default values
  7961   20003C                     	org	2097212
  7962   20003C  0FFF               	dw	4095
  7963                           
  7964                           ;Config register IDLOC31 @ 0x20003E
  7965                           ;	unspecified, using default values
  7966   20003E                     	org	2097214
  7967   20003E  0FFF               	dw	4095
  7968                           
  7969                           	psect	config
  7970                           
  7971                           ;Config register CONFIG1 @ 0x300000
  7972                           ;	External Oscillator Selection
  7973                           ;	FEXTOSC = ECH, EC (external clock) above 8 MHz
  7974                           ;	Reset Oscillator Selection
  7975                           ;	RSTOSC = EXTOSC, EXTOSC operating per FEXTOSC bits (device manufacturing default)
  7976   300000                     	org	3145728
  7977   300000  FF                 	db	255
  7978                           
  7979                           ;Config register CONFIG2 @ 0x300001
  7980                           ;	Clock out Enable bit
  7981                           ;	CLKOUTEN = OFF, CLKOUT function is disabled
  7982                           ;	PRLOCKED One-Way Set Enable bit
  7983                           ;	PR1WAY = ON, PRLOCKED bit can be cleared and set only once
  7984                           ;	Clock Switch Enable bit
  7985                           ;	CSWEN = ON, Writing to NOSC and NDIV is allowed
  7986                           ;	Fail-Safe Clock Monitor Enable bit
  7987                           ;	FCMEN = ON, Fail-Safe Clock Monitor enabled
  7988   300001                     	org	3145729
  7989   300001  FF                 	db	255
  7990                           
  7991                           ;Config register CONFIG3 @ 0x300002
  7992                           ;	MCLR Enable bit
  7993                           ;	MCLRE = EXTMCLR, If LVP = 0, MCLR pin is MCLR; If LVP = 1, RE3 pin function is MCLR
  7994                           ;	Power-up timer selection bits
  7995                           ;	PWRTS = PWRT_OFF, PWRT is disabled
  7996                           ;	Multi-vector enable bit
  7997                           ;	MVECEN = OFF, Interrupt contoller does not use vector table to prioritze interrupts
  7998                           ;	IVTLOCK bit One-way set enable bit
  7999                           ;	IVT1WAY = ON, IVTLOCKED bit can be cleared and set only once
  8000                           ;	Low Power BOR Enable bit
  8001                           ;	LPBOREN = OFF, Low-Power BOR disabled
  8002                           ;	Brown-out Reset Enable bits
  8003                           ;	BOREN = SBORDIS, Brown-out Reset enabled , SBOREN bit is ignored
  8004   300002                     	org	3145730
  8005   300002  F7                 	db	247
  8006                           
  8007                           ;Config register CONFIG4 @ 0x300003
  8008                           ;	Brown-out Reset Voltage Selection bits
  8009                           ;	BORV = VBOR_1P9, Brown-out Reset Voltage (VBOR) set to 1.9V
  8010                           ;	ZCD Disable bit
  8011                           ;	ZCD = OFF, ZCD module is disabled. ZCD can be enabled by setting the ZCDSEN bit of ZCD
      +                          CON
  8012                           ;	PPSLOCK bit One-Way Set Enable bit
  8013                           ;	PPS1WAY = ON, PPSLOCKED bit can be cleared and set only once; PPS registers remain loc
      +                          ked after one clear/set cycle
  8014                           ;	Stack Full/Underflow Reset Enable bit
  8015                           ;	STVREN = ON, Stack full/underflow will cause Reset
  8016                           ;	Low Voltage Programming Enable bit
  8017                           ;	LVP = ON, Low voltage programming enabled. MCLR/VPP pin function is MCLR. MCLRE config
      +                          uration bit is ignored
  8018                           ;	Extended Instruction Set Enable bit
  8019                           ;	XINST = OFF, Extended Instruction Set and Indexed Addressing Mode disabled
  8020   300003                     	org	3145731
  8021   300003  FF                 	db	255
  8022                           
  8023                           ;Config register CONFIG5 @ 0x300004
  8024                           ;	WDT Period selection bits
  8025                           ;	WDTCPS = WDTCPS_31, Divider ratio 1:65536; software control of WDTPS
  8026                           ;	WDT operating mode
  8027                           ;	WDTE = OFF, WDT Disabled; SWDTEN is ignored
  8028   300004                     	org	3145732
  8029   300004  9F                 	db	159
  8030                           
  8031                           ;Config register CONFIG6 @ 0x300005
  8032                           ;	WDT Window Select bits
  8033                           ;	WDTCWS = WDTCWS_7, window always open (100%); software control; keyed access not requi
      +                          red
  8034                           ;	WDT input clock selector
  8035                           ;	WDTCCS = SC, Software Control
  8036   300005                     	org	3145733
  8037   300005  FF                 	db	255
  8038                           
  8039                           ;Config register CONFIG7 @ 0x300006
  8040                           ;	Boot Block Size selection bits
  8041                           ;	BBSIZE = BBSIZE_512, Boot Block size is 512 words
  8042                           ;	Boot Block enable bit
  8043                           ;	BBEN = OFF, Boot block disabled
  8044                           ;	Storage Area Flash enable bit
  8045                           ;	SAFEN = OFF, SAF disabled
  8046                           ;	Background Debugger
  8047                           ;	DEBUG = OFF, Background Debugger disabled
  8048   300006                     	org	3145734
  8049   300006  FF                 	db	255
  8050                           
  8051                           ;Config register CONFIG8 @ 0x300007
  8052                           ;	Boot Block Write Protection bit
  8053                           ;	WRTB = OFF, Boot Block not Write protected
  8054                           ;	Configuration Register Write Protection bit
  8055                           ;	WRTC = OFF, Configuration registers not Write protected
  8056                           ;	Data EEPROM Write Protection bit
  8057                           ;	WRTD = OFF, Data EEPROM not Write protected
  8058                           ;	SAF Write protection bit
  8059                           ;	WRTSAF = OFF, SAF not Write Protected
  8060                           ;	Application Block write protection bit
  8061                           ;	WRTAPP = OFF, Application Block not write protected
  8062   300007                     	org	3145735
  8063   300007  FF                 	db	255
  8064                           
  8065                           ; Padding undefined space
  8066   300008                     	org	3145736
  8067   300008  FF                 	db	255
  8068                           
  8069                           ;Config register CONFIG10 @ 0x300009
  8070                           ;	PFM and Data EEPROM Code Protection bit
  8071                           ;	CP = OFF, PFM and Data EEPROM code protection disabled
  8072   300009                     	org	3145737
  8073   300009  FF                 	db	255
  8074                           tosu	equ	0x4FF
  8075                           tosh	equ	0x4FE
  8076                           tosl	equ	0x4FD
  8077                           stkptr	equ	0x4FC
  8078                           pclatu	equ	0x4FB
  8079                           pclath	equ	0x4FA
  8080                           pcl	equ	0x4F9
  8081                           tblptru	equ	0x4F8
  8082                           tblptrh	equ	0x4F7
  8083                           tblptrl	equ	0x4F6
  8084                           tablat	equ	0x4F5
  8085                           prodh	equ	0x4F4
  8086                           prodl	equ	0x4F3
  8087                           indf0	equ	0x4EF
  8088                           postinc0	equ	0x4EE
  8089                           postdec0	equ	0x4ED
  8090                           preinc0	equ	0x4EC
  8091                           plusw0	equ	0x4EB
  8092                           fsr0h	equ	0x4EA
  8093                           fsr0l	equ	0x4E9
  8094                           wreg	equ	0x4E8
  8095                           indf1	equ	0x4E7
  8096                           postinc1	equ	0x4E6
  8097                           postdec1	equ	0x4E5
  8098                           preinc1	equ	0x4E4
  8099                           plusw1	equ	0x4E3
  8100                           fsr1h	equ	0x4E2
  8101                           fsr1l	equ	0x4E1
  8102                           bsr	equ	0x4E0
  8103                           indf2	equ	0x4DF
  8104                           postinc2	equ	0x4DE
  8105                           postdec2	equ	0x4DD
  8106                           preinc2	equ	0x4DC
  8107                           plusw2	equ	0x4DB
  8108                           fsr2h	equ	0x4DA
  8109                           fsr2l	equ	0x4D9
  8110                           status	equ	0x4D8

Data Sizes:
    Strings     162
    Constant    152
    Data        0
    BSS         287
    Persistent  0
    Stack       0

Auto Spaces:
    Space          Size  Autos    Used
    COMRAM           95     83      89
    BANK5           160     23     160
    BANK6           256      1     145
    BANK7           256      0       0
    BANK8           256      0       0
    BANK9           256      0       0
    BANK10          256      0       0
    BANK11          256      0       0
    BANK12          256      0       0
    BANK13          256      0       0
    BANK14          256      0       0
    BANK15          256      0       0
    BANK16          256      0       0
    BANK17          256      0       0
    BANK18          256      0       0
    BANK19          256      0       0
    BANK20          256      0       0
    BANK21          256      0       0
    BANK22          256      0       0
    BANK23          256      0       0
    BANK24          256      0       0
    BANK25          256      0       0
    BANK26          256      0       0
    BANK27          256      0       0
    BANK28          256      0       0
    BANK29          256      0       0
    BANK30          256      0       0
    BANK31          256      0       0
    BANK32          256      0       0
    BANK33          256      0       0
    BANK34          256      0       0
    BANK35          256      0       0
    BANK36          256      0       0

Pointer List with Targets:

    S42$2$1	PTR unsigned char  size(2) Largest target is 0

    S42$3$1	PTR unsigned char  size(2) Largest target is 0

    S42$4$3	PTR unsigned char  size(2) Largest target is 0

    S42$4$1	PTR unsigned char  size(2) Largest target is 0

    Absolute function$0	PTR struct . size(2) Largest target is 0

    S42$8$0	PTR FTN()void  size(3) Largest target is 1
		 -> I2C1_DefaultCallback(), 

    S689$3$0	PTR void  size(2) Largest target is 0

    S689$4$0	PTR void  size(2) Largest target is 0

    S689$5$0	PTR void  size(2) Largest target is 0

    S1484$4$0	PTR FTN()void  size(3) Largest target is 1
		 -> Task_synch(), Timer0_DefaultOverflowCallback(), 

    S1657$17$0	PTR FTN()void  size(3) Largest target is 0

    S1657$18$0	PTR FTN()void  size(3) Largest target is 0

    S1657$20$0	PTR FTN()void  size(3) Largest target is 1
		 -> UART1_DefaultFramingErrorCallback(), 

    S1657$21$0	PTR FTN()void  size(3) Largest target is 1
		 -> UART1_DefaultOverrunErrorCallback(), 

    S1657$22$0	PTR FTN()void  size(3) Largest target is 1
		 -> UART1_DefaultParityErrorCallback(), 

    fputs@s	PTR const unsigned char  size(2) Largest target is 32
		 -> dbuf(BANK5[32]), 

    fputs@fp	PTR struct _IO_FILE size(2) Largest target is 0
		 -> NULL(NULL[0]), 

    S2786$source	PTR const unsigned char  size(2) Largest target is 0

    fputc@fp...source	PTR const unsigned char  size(2) Largest target is 0

    S2786$buffer	PTR unsigned char  size(2) Largest target is 0

    fputc@fp...buffer	PTR unsigned char  size(2) Largest target is 0

    fputc@fp	PTR struct _IO_FILE size(2) Largest target is 0
		 -> NULL(NULL[0]), 

    vfprintf@ap	PTR PTR void  size(2) Largest target is 2
		 -> printf@ap(COMRAM[2]), 

    vfprintf@fp	PTR struct _IO_FILE size(2) Largest target is 0
		 -> NULL(NULL[0]), 

    vfprintf@fmt	PTR const unsigned char  size(2) Largest target is 69
		 -> STR_8(CODE[3]), STR_7(CODE[69]), STR_6(CODE[69]), STR_5(CODE[69]), 
		 -> STR_4(CODE[7]), STR_3(CODE[7]), STR_2(CODE[5]), STR_1(CODE[5]), 

    vfprintf@cfmt	PTR unsigned char  size(2) Largest target is 69
		 -> STR_8(CODE[3]), STR_7(CODE[69]), STR_6(CODE[69]), STR_5(CODE[69]), 
		 -> STR_4(CODE[7]), STR_3(CODE[7]), STR_2(CODE[5]), STR_1(CODE[5]), 

    vfpfcnvrt@fp	PTR struct _IO_FILE size(2) Largest target is 0
		 -> NULL(NULL[0]), 

    vfpfcnvrt@ap	PTR PTR void  size(2) Largest target is 2
		 -> printf@ap(COMRAM[2]), 

    vfpfcnvrt@cp	PTR unsigned char  size(2) Largest target is 69
		 -> STR_8(CODE[3]), STR_7(CODE[69]), STR_6(CODE[69]), STR_5(CODE[69]), 
		 -> STR_4(CODE[7]), STR_3(CODE[7]), STR_2(CODE[5]), STR_1(CODE[5]), 

    vfpfcnvrt@fmt	PTR PTR unsigned char  size(2) Largest target is 2
		 -> vfprintf@cfmt(COMRAM[2]), 

    S2825$vp	PTR void  size(2) Largest target is 0

    convarg.vp	PTR void  size(2) Largest target is 0

    dtoa@fp	PTR struct _IO_FILE size(2) Largest target is 0
		 -> NULL(NULL[0]), 

    pad@buf	PTR unsigned char  size(2) Largest target is 32
		 -> dbuf(BANK5[32]), 

    pad@fp	PTR struct _IO_FILE size(2) Largest target is 0
		 -> NULL(NULL[0]), 

    printf@fmt	PTR const unsigned char  size(2) Largest target is 69
		 -> STR_8(CODE[3]), STR_7(CODE[69]), STR_6(CODE[69]), STR_5(CODE[69]), 
		 -> STR_4(CODE[7]), STR_3(CODE[7]), STR_2(CODE[5]), STR_1(CODE[5]), 

    printf@ap	PTR void [1] size(2) Largest target is 2
		 -> ?_printf(BANK5[2]), 

    Task_register@task	PTR FTN()void  size(3) Largest target is 1
		 -> printCounter(), printWelcome(), toggleLed(), 

    S2312$taskHandler	PTR FTN()void  size(3) Largest target is 1
		 -> printCounter(), printWelcome(), toggleLed(), NULL(NULL[0]), 

    tasks.taskHandler	PTR FTN()void  size(3) Largest target is 1
		 -> printCounter(), printWelcome(), toggleLed(), NULL(NULL[0]), 

    UART1_ParityErrorHandler	PTR FTN()void  size(3) Largest target is 1
		 -> UART1_DefaultParityErrorCallback(), Absolute function(), 

    UART1_ParityErrorCallbackRegister@callbackHandler	PTR FTN()void  size(3) Largest target is 1
		 -> UART1_DefaultParityErrorCallback(), 

    UART1_OverrunErrorCallbackRegister@callbackHandler	PTR FTN()void  size(3) Largest target is 1
		 -> UART1_DefaultOverrunErrorCallback(), 

    UART1_FramingErrorCallbackRegister@callbackHandler	PTR FTN()void  size(3) Largest target is 1
		 -> UART1_DefaultFramingErrorCallback(), 

    UART1_TxCompleteInterruptHandler	PTR FTN()void  size(3) Largest target is 1
		 -> Absolute function(), 

    UART1_RxCompleteInterruptHandler	PTR FTN()void  size(3) Largest target is 1
		 -> Absolute function(), 

    UART1_OverrunErrorHandler	PTR FTN()void  size(3) Largest target is 1
		 -> UART1_DefaultOverrunErrorCallback(), Absolute function(), 

    UART1_FramingErrorHandler	PTR FTN()void  size(3) Largest target is 1
		 -> UART1_DefaultFramingErrorCallback(), Absolute function(), 

    S1657$EventCallbackRegister	PTR FTN(PTR FTN()void ,)void  size(3) Largest target is 1
		 -> Absolute function(), 

    UART1.EventCallbackRegister	PTR FTN(PTR FTN()void ,)void  size(3) Largest target is 1
		 -> Absolute function(), 

    S1657$ParityErrorCallbackRegister	PTR FTN(PTR FTN()void ,)void  size(3) Largest target is 1
		 -> UART1_ParityErrorCallbackRegister(), 

    UART1.ParityErrorCallbackRegister	PTR FTN(PTR FTN()void ,)void  size(3) Largest target is 1
		 -> UART1_ParityErrorCallbackRegister(), 

    S1657$OverrunErrorCallbackRegister	PTR FTN(PTR FTN()void ,)void  size(3) Largest target is 1
		 -> UART1_OverrunErrorCallbackRegister(), 

    UART1.OverrunErrorCallbackRegister	PTR FTN(PTR FTN()void ,)void  size(3) Largest target is 1
		 -> UART1_OverrunErrorCallbackRegister(), 

    S1657$FramingErrorCallbackRegister	PTR FTN(PTR FTN()void ,)void  size(3) Largest target is 1
		 -> UART1_FramingErrorCallbackRegister(), 

    UART1.FramingErrorCallbackRegister	PTR FTN(PTR FTN()void ,)void  size(3) Largest target is 1
		 -> UART1_FramingErrorCallbackRegister(), 

    S1657$TxCollisionCallbackRegister	PTR FTN(PTR FTN()void ,)void  size(3) Largest target is 1
		 -> Absolute function(), 

    UART1.TxCollisionCallbackRegister	PTR FTN(PTR FTN()void ,)void  size(3) Largest target is 1
		 -> Absolute function(), 

    S1657$RxCompleteCallbackRegister	PTR FTN(PTR FTN()void ,)void  size(3) Largest target is 1
		 -> UART1_RxCompleteCallbackRegister(), 

    UART1.RxCompleteCallbackRegister	PTR FTN(PTR FTN()void ,)void  size(3) Largest target is 1
		 -> UART1_RxCompleteCallbackRegister(), 

    S1657$TxCompleteCallbackRegister	PTR FTN(PTR FTN()void ,)void  size(3) Largest target is 1
		 -> UART1_TxCompleteCallbackRegister(), 

    UART1.TxCompleteCallbackRegister	PTR FTN(PTR FTN()void ,)void  size(3) Largest target is 1
		 -> UART1_TxCompleteCallbackRegister(), 

    S1657$ErrorGet	PTR FTN()unsigned int  size(3) Largest target is 2
		 -> UART1_ErrorGet(), 

    UART1.ErrorGet	PTR FTN()unsigned int  size(3) Largest target is 2
		 -> UART1_ErrorGet(), 

    S1657$BaudRateGet	PTR FTN()unsigned long  size(3) Largest target is 1
		 -> Absolute function(), 

    UART1.BaudRateGet	PTR FTN()unsigned long  size(3) Largest target is 1
		 -> Absolute function(), 

    S1657$BaudRateSet	PTR FTN(unsigned long ,)void  size(3) Largest target is 1
		 -> Absolute function(), 

    UART1.BaudRateSet	PTR FTN(unsigned long ,)void  size(3) Largest target is 1
		 -> Absolute function(), 

    S1657$BRGCountGet	PTR FTN()unsigned long  size(3) Largest target is 1
		 -> Absolute function(), 

    UART1.BRGCountGet	PTR FTN()unsigned long  size(3) Largest target is 1
		 -> Absolute function(), 

    S1657$BRGCountSet	PTR FTN(unsigned long ,)void  size(3) Largest target is 1
		 -> Absolute function(), 

    UART1.BRGCountSet	PTR FTN(unsigned long ,)void  size(3) Largest target is 1
		 -> Absolute function(), 

    S1657$AutoBaudEventEnableGet	PTR FTN()_Bool  size(3) Largest target is 1
		 -> Absolute function(), 

    UART1.AutoBaudEventEnableGet	PTR FTN()_Bool  size(3) Largest target is 1
		 -> Absolute function(), 

    S1657$AutoBaudQuery	PTR FTN()_Bool  size(3) Largest target is 1
		 -> UART1_AutoBaudQuery(), 

    UART1.AutoBaudQuery	PTR FTN()_Bool  size(3) Largest target is 1
		 -> UART1_AutoBaudQuery(), 

    S1657$AutoBaudSet	PTR FTN(_Bool ,)void  size(3) Largest target is 1
		 -> UART1_AutoBaudSet(), 

    UART1.AutoBaudSet	PTR FTN(_Bool ,)void  size(3) Largest target is 1
		 -> UART1_AutoBaudSet(), 

    S1657$TransmitDisable	PTR FTN()void  size(3) Largest target is 1
		 -> UART1_TransmitDisable(), 

    UART1.TransmitDisable	PTR FTN()void  size(3) Largest target is 1
		 -> UART1_TransmitDisable(), 

    S1657$TransmitEnable	PTR FTN()void  size(3) Largest target is 1
		 -> UART1_TransmitEnable(), 

    UART1.TransmitEnable	PTR FTN()void  size(3) Largest target is 1
		 -> UART1_TransmitEnable(), 

    S1657$IsTxDone	PTR FTN()_Bool  size(3) Largest target is 1
		 -> UART1_IsTxDone(), 

    UART1.IsTxDone	PTR FTN()_Bool  size(3) Largest target is 1
		 -> UART1_IsTxDone(), 

    S1657$IsTxReady	PTR FTN()_Bool  size(3) Largest target is 1
		 -> UART1_IsTxReady(), 

    UART1.IsTxReady	PTR FTN()_Bool  size(3) Largest target is 1
		 -> UART1_IsTxReady(), 

    S1657$IsRxReady	PTR FTN()_Bool  size(3) Largest target is 1
		 -> UART1_IsRxReady(), 

    UART1.IsRxReady	PTR FTN()_Bool  size(3) Largest target is 1
		 -> UART1_IsRxReady(), 

    S1657$Write	PTR FTN(unsigned char ,)void  size(3) Largest target is 1
		 -> UART1_Write(), 

    UART1.Write	PTR FTN(unsigned char ,)void  size(3) Largest target is 1
		 -> UART1_Write(), 

    S1657$Read	PTR FTN()unsigned char  size(3) Largest target is 1
		 -> UART1_Read(), 

    UART1.Read	PTR FTN()unsigned char  size(3) Largest target is 1
		 -> UART1_Read(), 

    S1657$Deinitialize	PTR FTN()void  size(3) Largest target is 1
		 -> UART1_Deinitialize(), 

    UART1.Deinitialize	PTR FTN()void  size(3) Largest target is 1
		 -> UART1_Deinitialize(), 

    S1657$Initialize	PTR FTN()void  size(3) Largest target is 1
		 -> UART1_Initialize(), 

    UART1.Initialize	PTR FTN()void  size(3) Largest target is 1
		 -> UART1_Initialize(), 

    Timer0_OverflowCallbackRegister@CallbackHandler	PTR FTN()void  size(3) Largest target is 1
		 -> Task_synch(), Timer0_DefaultOverflowCallback(), 

    Timer0_OverflowCallback	PTR FTN()void  size(3) Largest target is 1
		 -> Task_synch(), Timer0_DefaultOverflowCallback(), Absolute function(), 

    S1484TMR_INTERFACE$Tasks	PTR FTN()void  size(3) Largest target is 1
		 -> Absolute function(), 

    Timer0.Tasks	PTR FTN()void  size(3) Largest target is 1
		 -> Absolute function(), 

    S1484TMR_INTERFACE$TimeoutCallbackRegister	PTR FTN(PTR FTN()void ,)void  size(3) Largest target is 1
		 -> Timer0_OverflowCallbackRegister(), 

    Timer0.TimeoutCallbackRegister	PTR FTN(PTR FTN()void ,)void  size(3) Largest target is 1
		 -> Timer0_OverflowCallbackRegister(), 

    S1484TMR_INTERFACE$PeriodCountSet	PTR FTN(unsigned int ,)void  size(3) Largest target is 1
		 -> Timer0_Write(), 

    Timer0.PeriodCountSet	PTR FTN(unsigned int ,)void  size(3) Largest target is 1
		 -> Timer0_Write(), 

    S1484TMR_INTERFACE$Stop	PTR FTN()void  size(3) Largest target is 1
		 -> Timer0_Stop(), 

    Timer0.Stop	PTR FTN()void  size(3) Largest target is 1
		 -> Timer0_Stop(), 

    S1484TMR_INTERFACE$Start	PTR FTN()void  size(3) Largest target is 1
		 -> Timer0_Start(), 

    Timer0.Start	PTR FTN()void  size(3) Largest target is 1
		 -> Timer0_Start(), 

    S1484TMR_INTERFACE$Initialize	PTR FTN()void  size(3) Largest target is 1
		 -> Timer0_Initialize(), 

    Timer0.Initialize	PTR FTN()void  size(3) Largest target is 1
		 -> Timer0_Initialize(), 

    INT2_SetInterruptHandler@InterruptHandler	PTR FTN()void  size(3) Largest target is 1
		 -> INT2_DefaultInterruptHandler(), 

    INT2_InterruptHandler	PTR FTN()void  size(3) Largest target is 1
		 -> INT2_DefaultInterruptHandler(), Absolute function(), 

    INT1_SetInterruptHandler@InterruptHandler	PTR FTN()void  size(3) Largest target is 1
		 -> INT1_DefaultInterruptHandler(), 

    INT1_InterruptHandler	PTR FTN()void  size(3) Largest target is 1
		 -> INT1_DefaultInterruptHandler(), Absolute function(), 

    INT0_SetInterruptHandler@InterruptHandler	PTR FTN()void  size(3) Largest target is 1
		 -> INT0_DefaultInterruptHandler(), 

    INT0_InterruptHandler	PTR FTN()void  size(3) Largest target is 1
		 -> INT0_DefaultInterruptHandler(), Absolute function(), 

    UART1_RxInterruptHandler	PTR FTN()void  size(3) Largest target is 1
		 -> UART1_ReceiveISR(), Absolute function(), 

    UART1_TxInterruptHandler	PTR FTN()void  size(3) Largest target is 1
		 -> UART1_TransmitISR(), Absolute function(), 

    S689SPI_INTERFACE$ByteWrite	PTR FTN(unsigned char ,)void  size(3) Largest target is 1
		 -> SPI1_ByteWrite(), 

    SPI1.ByteWrite	PTR FTN(unsigned char ,)void  size(3) Largest target is 1
		 -> SPI1_ByteWrite(), 

    S689SPI_INTERFACE$ByteRead	PTR FTN()unsigned char  size(3) Largest target is 1
		 -> SPI1_ByteRead(), 

    SPI1.ByteRead	PTR FTN()unsigned char  size(3) Largest target is 1
		 -> SPI1_ByteRead(), 

    S689SPI_INTERFACE$ByteExchange	PTR FTN(unsigned char ,)unsigned char  size(3) Largest target is 1
		 -> SPI1_ByteExchange(), 

    SPI1.ByteExchange	PTR FTN(unsigned char ,)unsigned char  size(3) Largest target is 1
		 -> SPI1_ByteExchange(), 

    S689SPI_INTERFACE$BufferWrite	PTR FTN(PTR void ,unsigned int ,)void  size(3) Largest target is 1
		 -> SPI1_BufferWrite(), 

    SPI1.BufferWrite	PTR FTN(PTR void ,unsigned int ,)void  size(3) Largest target is 1
		 -> SPI1_BufferWrite(), 

    S689SPI_INTERFACE$BufferRead	PTR FTN(PTR void ,unsigned int ,)void  size(3) Largest target is 1
		 -> SPI1_BufferRead(), 

    SPI1.BufferRead	PTR FTN(PTR void ,unsigned int ,)void  size(3) Largest target is 1
		 -> SPI1_BufferRead(), 

    S689SPI_INTERFACE$BufferExchange	PTR FTN(PTR void ,unsigned int ,)void  size(3) Largest target is 1
		 -> SPI1_BufferExchange(), 

    SPI1.BufferExchange	PTR FTN(PTR void ,unsigned int ,)void  size(3) Largest target is 1
		 -> SPI1_BufferExchange(), 

    S689SPI_INTERFACE$Open	PTR FTN(unsigned char ,)_Bool  size(3) Largest target is 1
		 -> SPI1_Open(), 

    SPI1.Open	PTR FTN(unsigned char ,)_Bool  size(3) Largest target is 1
		 -> SPI1_Open(), 

    S689SPI_INTERFACE$Close	PTR FTN()void  size(3) Largest target is 1
		 -> SPI1_Close(), 

    SPI1.Close	PTR FTN()void  size(3) Largest target is 1
		 -> SPI1_Close(), 

    S689SPI_INTERFACE$Initialize	PTR FTN()void  size(3) Largest target is 1
		 -> SPI1_Initialize(), 

    SPI1.Initialize	PTR FTN()void  size(3) Largest target is 1
		 -> SPI1_Initialize(), 

    I2C1_Callback	PTR FTN()void  size(3) Largest target is 1
		 -> I2C1_DefaultCallback(), Absolute function(), 

    I2C1_CallbackRegister@callbackHandler	PTR FTN()void  size(3) Largest target is 1
		 -> I2C1_DefaultCallback(), 

    S131$readPtr	PTR unsigned char  size(2) Largest target is 0
		 -> NULL(NULL[0]), 

    i2c1Status.readPtr	PTR unsigned char  size(2) Largest target is 0
		 -> NULL(NULL[0]), 

    S131$writePtr	PTR unsigned char  size(2) Largest target is 0
		 -> NULL(NULL[0]), 

    i2c1Status.writePtr	PTR unsigned char  size(2) Largest target is 0
		 -> NULL(NULL[0]), 

    S42$Tasks	PTR FTN()void  size(3) Largest target is 1
		 -> Absolute function(), 

    I2C1_Host.Tasks	PTR FTN()void  size(3) Largest target is 1
		 -> Absolute function(), 

    S42$CallbackRegister	PTR FTN(PTR FTN()void ,)void  size(3) Largest target is 1
		 -> I2C1_CallbackRegister(), 

    I2C1_Host.CallbackRegister	PTR FTN(PTR FTN()void ,)void  size(3) Largest target is 1
		 -> I2C1_CallbackRegister(), 

    S42$IsBusy	PTR FTN()_Bool  size(3) Largest target is 1
		 -> I2C1_IsBusy(), 

    I2C1_Host.IsBusy	PTR FTN()_Bool  size(3) Largest target is 1
		 -> I2C1_IsBusy(), 

    S42$ErrorGet	PTR FTN()enum E17008 size(3) Largest target is 1
		 -> I2C1_ErrorGet(), 

    I2C1_Host.ErrorGet	PTR FTN()enum E17008 size(3) Largest target is 1
		 -> I2C1_ErrorGet(), 

    S42$TransferSetup	PTR FTN(PTR struct .,unsigned long ,)_Bool  size(3) Largest target is 1
		 -> Absolute function(), 

    I2C1_Host.TransferSetup	PTR FTN(PTR struct .,unsigned long ,)_Bool  size(3) Largest target is 1
		 -> Absolute function(), 

    S42$WriteRead	PTR FTN(unsigned short ,PTR unsigned char ,unsigned int ,PTR unsigned char ,unsigned int ,)_Bool  size(3) Largest target is 1
		 -> I2C1_WriteRead(), 

    I2C1_Host.WriteRead	PTR FTN(unsigned short ,PTR unsigned char ,unsigned int ,PTR unsigned char ,unsigned int ,)_Bool  size(3) Largest target is 1
		 -> I2C1_WriteRead(), 

    S42$Read	PTR FTN(unsigned short ,PTR unsigned char ,unsigned int ,)_Bool  size(3) Largest target is 1
		 -> I2C1_Read(), 

    I2C1_Host.Read	PTR FTN(unsigned short ,PTR unsigned char ,unsigned int ,)_Bool  size(3) Largest target is 1
		 -> I2C1_Read(), 

    S42$Write	PTR FTN(unsigned short ,PTR unsigned char ,unsigned int ,)_Bool  size(3) Largest target is 1
		 -> I2C1_Write(), 

    I2C1_Host.Write	PTR FTN(unsigned short ,PTR unsigned char ,unsigned int ,)_Bool  size(3) Largest target is 1
		 -> I2C1_Write(), 

    S42$Deinitialize	PTR FTN()void  size(3) Largest target is 1
		 -> I2C1_Deinitialize(), 

    I2C1_Host.Deinitialize	PTR FTN()void  size(3) Largest target is 1
		 -> I2C1_Deinitialize(), 

    S42$Initialize	PTR FTN()void  size(3) Largest target is 1
		 -> I2C1_Initialize(), 

    I2C1_Host.Initialize	PTR FTN()void  size(3) Largest target is 1
		 -> I2C1_Initialize(), 


Critical Paths under _main in COMRAM

    _printWelcome->_printf
    _printCounter->_printf
    _printf->_vfprintf
    _vfprintf->_vfpfcnvrt
    _vfpfcnvrt->_dtoa
    _dtoa->_pad
    _pad->_fputs
    _fputs->_fputc
    _fputc->_putch
    _putch->_UART1_Write
    _abs->___aomod
    _UART1_Initialize->_UART1_FramingErrorCallbackRegister
    _UART1_Initialize->_UART1_OverrunErrorCallbackRegister
    _UART1_Initialize->_UART1_ParityErrorCallbackRegister
    _Timer0_Initialize->_Timer0_OverflowCallbackRegister
    _INTERRUPT_Initialize->_INT0_SetInterruptHandler
    _INTERRUPT_Initialize->_INT1_SetInterruptHandler
    _INTERRUPT_Initialize->_INT2_SetInterruptHandler
    _I2C1_Initialize->_I2C1_CallbackRegister

Critical Paths under _INTERRUPT_InterruptManager in COMRAM

    _Timer0_OverflowISR->_Task_synch
    _I2C1_TX_ISR->_I2C1_DataTransmit
    _I2C1_ReadStart->_I2C1_AddrTransmit
    _I2C1_ReadStart->_I2C1_CounterSet
    _I2C1_StopSend->_I2C1_CounterSet
    _I2C1_StopSend->_I2C1_DataTransmit

Critical Paths under _main in BANK5

    _main->_Task_execute
    _printWelcome->_printf
    _printCounter->_printf
    _printf->_vfprintf
    _vfprintf->_vfpfcnvrt

Critical Paths under _INTERRUPT_InterruptManager in BANK5

    None.

Critical Paths under _main in BANK6

    _main->_Task_execute

Critical Paths under _INTERRUPT_InterruptManager in BANK6

    None.

Critical Paths under _main in BANK7

    None.

Critical Paths under _INTERRUPT_InterruptManager in BANK7

    None.

Critical Paths under _main in BANK8

    None.

Critical Paths under _INTERRUPT_InterruptManager in BANK8

    None.

Critical Paths under _main in BANK9

    None.

Critical Paths under _INTERRUPT_InterruptManager in BANK9

    None.

Critical Paths under _main in BANK10

    None.

Critical Paths under _INTERRUPT_InterruptManager in BANK10

    None.

Critical Paths under _main in BANK11

    None.

Critical Paths under _INTERRUPT_InterruptManager in BANK11

    None.

Critical Paths under _main in BANK12

    None.

Critical Paths under _INTERRUPT_InterruptManager in BANK12

    None.

Critical Paths under _main in BANK13

    None.

Critical Paths under _INTERRUPT_InterruptManager in BANK13

    None.

Critical Paths under _main in BANK14

    None.

Critical Paths under _INTERRUPT_InterruptManager in BANK14

    None.

Critical Paths under _main in BANK15

    None.

Critical Paths under _INTERRUPT_InterruptManager in BANK15

    None.

Critical Paths under _main in BANK16

    None.

Critical Paths under _INTERRUPT_InterruptManager in BANK16

    None.

Critical Paths under _main in BANK17

    None.

Critical Paths under _INTERRUPT_InterruptManager in BANK17

    None.

Critical Paths under _main in BANK18

    None.

Critical Paths under _INTERRUPT_InterruptManager in BANK18

    None.

Critical Paths under _main in BANK19

    None.

Critical Paths under _INTERRUPT_InterruptManager in BANK19

    None.

Critical Paths under _main in BANK20

    None.

Critical Paths under _INTERRUPT_InterruptManager in BANK20

    None.

Critical Paths under _main in BANK21

    None.

Critical Paths under _INTERRUPT_InterruptManager in BANK21

    None.

Critical Paths under _main in BANK22

    None.

Critical Paths under _INTERRUPT_InterruptManager in BANK22

    None.

Critical Paths under _main in BANK23

    None.

Critical Paths under _INTERRUPT_InterruptManager in BANK23

    None.

Critical Paths under _main in BANK24

    None.

Critical Paths under _INTERRUPT_InterruptManager in BANK24

    None.

Critical Paths under _main in BANK25

    None.

Critical Paths under _INTERRUPT_InterruptManager in BANK25

    None.

Critical Paths under _main in BANK26

    None.

Critical Paths under _INTERRUPT_InterruptManager in BANK26

    None.

Critical Paths under _main in BANK27

    None.

Critical Paths under _INTERRUPT_InterruptManager in BANK27

    None.

Critical Paths under _main in BANK28

    None.

Critical Paths under _INTERRUPT_InterruptManager in BANK28

    None.

Critical Paths under _main in BANK29

    None.

Critical Paths under _INTERRUPT_InterruptManager in BANK29

    None.

Critical Paths under _main in BANK30

    None.

Critical Paths under _INTERRUPT_InterruptManager in BANK30

    None.

Critical Paths under _main in BANK31

    None.

Critical Paths under _INTERRUPT_InterruptManager in BANK31

    None.

Critical Paths under _main in BANK32

    None.

Critical Paths under _INTERRUPT_InterruptManager in BANK32

    None.

Critical Paths under _main in BANK33

    None.

Critical Paths under _INTERRUPT_InterruptManager in BANK33

    None.

Critical Paths under _main in BANK34

    None.

Critical Paths under _INTERRUPT_InterruptManager in BANK34

    None.

Critical Paths under _main in BANK35

    None.

Critical Paths under _INTERRUPT_InterruptManager in BANK35

    None.

Critical Paths under _main in BANK36

    None.

Critical Paths under _INTERRUPT_InterruptManager in BANK36

    None.

Call Graph Tables:

 ---------------------------------------------------------------------------------
 (Depth) Function   	        Calls       Base Space   Used Autos Params    Refs
 ---------------------------------------------------------------------------------
 (0) _main                                                 0     0      0   17861
                  _SYSTEM_Initialize
                       _Task_execute
                      _Task_register
    _Timer0_OverflowCallbackRegister
 ---------------------------------------------------------------------------------
 (1) _Task_register                                       11     4      7     912
                                              6 COMRAM    11     4      7
 ---------------------------------------------------------------------------------
 (1) _Task_execute                                         4     4      0   15751
                                             20 BANK5      3     3      0
                                              0 BANK6      1     1      0
                       _printCounter *
                       _printWelcome *
                          _toggleLed *
 ---------------------------------------------------------------------------------
 (2) _toggleLed                                            1     1      0       0
                                              6 COMRAM     1     1      0
 ---------------------------------------------------------------------------------
 (2) _printWelcome                                         0     0      0    7733
                             _printf
 ---------------------------------------------------------------------------------
 (2) _printCounter                                         0     0      0    7733
                             _printf
 ---------------------------------------------------------------------------------
 (3) _printf                                               8     4      4    7733
                                             81 COMRAM     2     2      0
                                             16 BANK5      4     0      4
                           _vfprintf
 ---------------------------------------------------------------------------------
 (4) _vfprintf                                             8     2      6    6932
                                             79 COMRAM     2     2      0
                                             10 BANK5      6     0      6
                          _vfpfcnvrt
 ---------------------------------------------------------------------------------
 (5) _vfpfcnvrt                                           23    17      6    6471
                                             71 COMRAM     8     2      6
                                              0 BANK5     10    10      0
                               _dtoa
                              _fputc
 ---------------------------------------------------------------------------------
 (6) _dtoa                                                35    25     10    4870
                                             36 COMRAM    35    25     10
                            ___aodiv
                            ___aomod
                                _abs
                                _pad
 ---------------------------------------------------------------------------------
 (7) _pad                                                 11     5      6    2601
                                             25 COMRAM    11     5      6
                              _fputc
                              _fputs
 ---------------------------------------------------------------------------------
 (8) _fputs                                                7     3      4    1211
                                             18 COMRAM     7     3      4
                              _fputc
 ---------------------------------------------------------------------------------
 (6) _fputc                                                9     5      4     891
                                              9 COMRAM     9     5      4
                              _putch
 ---------------------------------------------------------------------------------
 (7) _putch                                                1     1      0     127
                                              8 COMRAM     1     1      0
                    _UART1_IsTxReady
                        _UART1_Write
 ---------------------------------------------------------------------------------
 (8) _UART1_Write                                          2     2      0      96
                                              6 COMRAM     2     2      0
 ---------------------------------------------------------------------------------
 (8) _UART1_IsTxReady                                      0     0      0       0
 ---------------------------------------------------------------------------------
 (7) _abs                                                  4     2      2     183
                                             24 COMRAM     4     2      2
                            ___aomod (ARG)
 ---------------------------------------------------------------------------------
 (7) ___aomod                                             18     2     16     613
                                              6 COMRAM    18     2     16
 ---------------------------------------------------------------------------------
 (7) ___aodiv                                             26    10     16     625
                                              6 COMRAM    26    10     16
 ---------------------------------------------------------------------------------
 (1) _SYSTEM_Initialize                                    0     0      0    1024
                   _CLOCK_Initialize
                    _I2C1_Initialize
               _INTERRUPT_Initialize
             _PIN_MANAGER_Initialize
                    _SPI1_Initialize
                  _Timer0_Initialize
                   _UART1_Initialize
 ---------------------------------------------------------------------------------
 (2) _UART1_Initialize                                     0     0      0     360
 _UART1_FramingErrorCallbackRegister
 _UART1_OverrunErrorCallbackRegister
  _UART1_ParityErrorCallbackRegister
 ---------------------------------------------------------------------------------
 (3) _UART1_ParityErrorCallbackRegister                    3     0      3     120
                                              6 COMRAM     3     0      3
 ---------------------------------------------------------------------------------
 (3) _UART1_OverrunErrorCallbackRegister                   3     0      3     120
                                              6 COMRAM     3     0      3
 ---------------------------------------------------------------------------------
 (3) _UART1_FramingErrorCallbackRegister                   3     0      3     120
                                              6 COMRAM     3     0      3
 ---------------------------------------------------------------------------------
 (2) _Timer0_Initialize                                    0     0      0     174
    _Timer0_OverflowCallbackRegister
 ---------------------------------------------------------------------------------
 (1) _Timer0_OverflowCallbackRegister                      3     0      3     174
                                              6 COMRAM     3     0      3
 ---------------------------------------------------------------------------------
 (2) _SPI1_Initialize                                      0     0      0       0
 ---------------------------------------------------------------------------------
 (2) _PIN_MANAGER_Initialize                               0     0      0       0
 ---------------------------------------------------------------------------------
 (2) _INTERRUPT_Initialize                                 0     0      0     294
           _INT0_SetInterruptHandler
           _INT1_SetInterruptHandler
           _INT2_SetInterruptHandler
 ---------------------------------------------------------------------------------
 (3) _INT2_SetInterruptHandler                             3     0      3      98
                                              6 COMRAM     3     0      3
 ---------------------------------------------------------------------------------
 (3) _INT1_SetInterruptHandler                             3     0      3      98
                                              6 COMRAM     3     0      3
 ---------------------------------------------------------------------------------
 (3) _INT0_SetInterruptHandler                             3     0      3      98
                                              6 COMRAM     3     0      3
 ---------------------------------------------------------------------------------
 (2) _I2C1_Initialize                                      0     0      0     196
              _I2C1_CallbackRegister
              _I2C1_InterruptsEnable
 ---------------------------------------------------------------------------------
 (3) _I2C1_InterruptsEnable                                0     0      0       0
 ---------------------------------------------------------------------------------
 (3) _I2C1_CallbackRegister                                3     0      3     196
                                              6 COMRAM     3     0      3
 ---------------------------------------------------------------------------------
 (2) _CLOCK_Initialize                                     0     0      0       0
 ---------------------------------------------------------------------------------
 Estimated maximum stack depth 8
 ---------------------------------------------------------------------------------
 (Depth) Function   	        Calls       Base Space   Used Autos Params    Refs
 ---------------------------------------------------------------------------------
 (12) _INTERRUPT_InterruptManager                          2     2      0     445
                                              4 COMRAM     2     2      0
                   Absolute function *
                     _I2C1_ERROR_ISR
                           _I2C1_ISR
                        _I2C1_RX_ISR
                        _I2C1_TX_ISR
                           _INT2_ISR
                    _PIN_MANAGER_IOC
                 _Timer0_OverflowISR
                   _UART1_ReceiveISR *
                  _UART1_TransmitISR *
 ---------------------------------------------------------------------------------
 (13) _UART1_TransmitISR                                   1     1      0      23
                                              0 COMRAM     1     1      0
 ---------------------------------------------------------------------------------
 (13) _UART1_ReceiveISR                                    2     2      0      68
                                              0 COMRAM     2     2      0
                   Absolute function *
  _UART1_DefaultFramingErrorCallback *
  _UART1_DefaultOverrunErrorCallback *
 ---------------------------------------------------------------------------------
 (14) _UART1_DefaultOverrunErrorCallback                   0     0      0       0
 ---------------------------------------------------------------------------------
 (14) _UART1_DefaultFramingErrorCallback                   0     0      0       0
 ---------------------------------------------------------------------------------
 (13) _Timer0_OverflowISR                                  0     0      0     200
                   Absolute function *
                         _Task_synch *
     _Timer0_DefaultOverflowCallback *
 ---------------------------------------------------------------------------------
 (14) _Timer0_DefaultOverflowCallback                      0     0      0       0
 ---------------------------------------------------------------------------------
 (14) _Task_synch                                          4     4      0     200
                                              0 COMRAM     4     4      0
 ---------------------------------------------------------------------------------
 (13) _PIN_MANAGER_IOC                                     0     0      0       0
 ---------------------------------------------------------------------------------
 (13) _INT2_ISR                                            0     0      0       0
                      _INT2_CallBack
 ---------------------------------------------------------------------------------
 (14) _INT2_CallBack                                       0     0      0       0
                   Absolute function *
       _INT2_DefaultInterruptHandler *
 ---------------------------------------------------------------------------------
 (15) _INT2_DefaultInterruptHandler                        0     0      0       0
 ---------------------------------------------------------------------------------
 (13) _I2C1_TX_ISR                                         0     0      0      22
                  _I2C1_DataTransmit
 ---------------------------------------------------------------------------------
 (13) _I2C1_RX_ISR                                         0     0      0       0
                   _I2C1_DataReceive
 ---------------------------------------------------------------------------------
 (14) _I2C1_DataReceive                                    0     0      0       0
 ---------------------------------------------------------------------------------
 (13) _I2C1_ISR                                            0     0      0      88
                         _I2C1_Close
                     _I2C1_ReadStart
                _I2C1_RestartDisable
                      _I2C1_StopSend
 ---------------------------------------------------------------------------------
 (14) _I2C1_ReadStart                                      0     0      0      44
                  _I2C1_AddrTransmit
                    _I2C1_CounterSet
                     _I2C1_StartSend
 ---------------------------------------------------------------------------------
 (15) _I2C1_StartSend                                      0     0      0       0
 ---------------------------------------------------------------------------------
 (15) _I2C1_AddrTransmit                                   1     1      0      22
                                              0 COMRAM     1     1      0
 ---------------------------------------------------------------------------------
 (14) _I2C1_Close                                          0     0      0       0
                   _I2C1_BufferClear
               _I2C1_ErrorFlagsClear
               _I2C1_InterruptsClear
 ---------------------------------------------------------------------------------
 (13) _I2C1_ERROR_ISR                                      0     0      0      44
                   Absolute function *
                      _I2C1_BusReset
               _I2C1_DefaultCallback *
                        _I2C1_IsAddr
                      _I2C1_IsBusCol
                  _I2C1_IsBusTimeOut
                        _I2C1_IsData
                        _I2C1_IsNack
                      _I2C1_StopSend
 ---------------------------------------------------------------------------------
 (14) _I2C1_StopSend                                       0     0      0      44
                    _I2C1_CounterGet
                    _I2C1_CounterSet
                  _I2C1_DataTransmit
                _I2C1_RestartDisable
 ---------------------------------------------------------------------------------
 (15) _I2C1_RestartDisable                                 0     0      0       0
 ---------------------------------------------------------------------------------
 (14) _I2C1_DataTransmit                                   1     1      0      22
                                              0 COMRAM     1     1      0
 ---------------------------------------------------------------------------------
 (15) _I2C1_CounterSet                                     1     1      0      22
                                              0 COMRAM     1     1      0
 ---------------------------------------------------------------------------------
 (15) _I2C1_CounterGet                                     0     0      0       0
 ---------------------------------------------------------------------------------
 (14) _I2C1_IsNack                                         0     0      0       0
 ---------------------------------------------------------------------------------
 (14) _I2C1_IsData                                         0     0      0       0
 ---------------------------------------------------------------------------------
 (14) _I2C1_IsBusTimeOut                                   0     0      0       0
 ---------------------------------------------------------------------------------
 (14) _I2C1_IsBusCol                                       0     0      0       0
 ---------------------------------------------------------------------------------
 (14) _I2C1_IsAddr                                         0     0      0       0
 ---------------------------------------------------------------------------------
 (14) _I2C1_DefaultCallback                                0     0      0       0
 ---------------------------------------------------------------------------------
 (14) _I2C1_BusReset                                       0     0      0       0
                   _I2C1_BufferClear
               _I2C1_ErrorFlagsClear
               _I2C1_InterruptsClear
             _I2C1_InterruptsDisable
            i2_I2C1_InterruptsEnable
 ---------------------------------------------------------------------------------
 (15) i2_I2C1_InterruptsEnable                             0     0      0       0
 ---------------------------------------------------------------------------------
 (15) _I2C1_InterruptsDisable                              0     0      0       0
 ---------------------------------------------------------------------------------
 (15) _I2C1_InterruptsClear                                0     0      0       0
 ---------------------------------------------------------------------------------
 (15) _I2C1_ErrorFlagsClear                                0     0      0       0
 ---------------------------------------------------------------------------------
 (15) _I2C1_BufferClear                                    0     0      0       0
 ---------------------------------------------------------------------------------
 (14) Absolute function(Fake)                              0     0      0       0
 ---------------------------------------------------------------------------------
 Estimated maximum stack depth 15
 ---------------------------------------------------------------------------------

 Call Graph Graphs:

 _main (ROOT)
   _SYSTEM_Initialize
     _CLOCK_Initialize
     _I2C1_Initialize
       _I2C1_CallbackRegister
       _I2C1_InterruptsEnable
     _INTERRUPT_Initialize
       _INT0_SetInterruptHandler
       _INT1_SetInterruptHandler
       _INT2_SetInterruptHandler
     _PIN_MANAGER_Initialize
     _SPI1_Initialize
     _Timer0_Initialize
       _Timer0_OverflowCallbackRegister
     _UART1_Initialize
       _UART1_FramingErrorCallbackRegister
       _UART1_OverrunErrorCallbackRegister
       _UART1_ParityErrorCallbackRegister
   _Task_execute
     _printCounter *
       _printf
         _vfprintf
           _vfpfcnvrt
             _dtoa
               ___aodiv
               ___aomod
               _abs
                 ___aomod (ARG)
               _pad
                 _fputc
                   _putch
                     _UART1_IsTxReady
                     _UART1_Write
                 _fputs
                   _fputc
             _fputc
     _printWelcome *
       _printf
     _toggleLed *
   _Task_register
   _Timer0_OverflowCallbackRegister

 _INTERRUPT_InterruptManager (ROOT)
   Absolute function(Fake) *
   _I2C1_ERROR_ISR *
     Absolute function(Fake) *
     _I2C1_BusReset *
       _I2C1_BufferClear
       _I2C1_ErrorFlagsClear
       _I2C1_InterruptsClear
       _I2C1_InterruptsDisable
       i2_I2C1_InterruptsEnable
     _I2C1_DefaultCallback *
     _I2C1_IsAddr *
     _I2C1_IsBusCol *
     _I2C1_IsBusTimeOut *
     _I2C1_IsData *
     _I2C1_IsNack *
     _I2C1_StopSend *
       _I2C1_CounterGet
       _I2C1_CounterSet
       _I2C1_DataTransmit
       _I2C1_RestartDisable
   _I2C1_ISR *
     _I2C1_Close
       _I2C1_BufferClear
       _I2C1_ErrorFlagsClear
       _I2C1_InterruptsClear
     _I2C1_ReadStart
       _I2C1_AddrTransmit
       _I2C1_CounterSet
       _I2C1_StartSend
     _I2C1_RestartDisable
     _I2C1_StopSend
   _I2C1_RX_ISR *
     _I2C1_DataReceive
   _I2C1_TX_ISR *
     _I2C1_DataTransmit
   _INT2_ISR *
     _INT2_CallBack
       Absolute function(Fake) *
       _INT2_DefaultInterruptHandler *
   _PIN_MANAGER_IOC *
   _Timer0_OverflowISR *
     Absolute function(Fake) *
     _Task_synch *
     _Timer0_DefaultOverflowCallback *
   _UART1_ReceiveISR *
     Absolute function(Fake) *
     _UART1_DefaultFramingErrorCallback *
     _UART1_DefaultOverrunErrorCallback *
   _UART1_TransmitISR *

 Address spaces:
Name               Size   Autos  Total    Cost      Usage
BIGRAM            1FFF      0       0      69        0.0%
EEDATA             400      0       0       0        0.0%
BITBIGSFRlllhhh    156      0       0      96        0.0%
BITBIGSFR_1        100      0       0      68        0.0%
BITBANK36          100      0       0      66        0.0%
BANK36             100      0       0      67        0.0%
BITBANK35          100      0       0      64        0.0%
BANK35             100      0       0      65        0.0%
BITBANK34          100      0       0      62        0.0%
BANK34             100      0       0      63        0.0%
BITBANK33          100      0       0      60        0.0%
BANK33             100      0       0      61        0.0%
BITBANK32          100      0       0      58        0.0%
BANK32             100      0       0      59        0.0%
BITBANK31          100      0       0      56        0.0%
BANK31             100      0       0      57        0.0%
BITBANK30          100      0       0      54        0.0%
BANK30             100      0       0      55        0.0%
BITBANK29          100      0       0      52        0.0%
BANK29             100      0       0      53        0.0%
BITBANK28          100      0       0      50        0.0%
BANK28             100      0       0      51        0.0%
BITBANK27          100      0       0      48        0.0%
BANK27             100      0       0      49        0.0%
BITBANK26          100      0       0      46        0.0%
BANK26             100      0       0      47        0.0%
BITBANK25          100      0       0      44        0.0%
BANK25             100      0       0      45        0.0%
BITBANK24          100      0       0      42        0.0%
BANK24             100      0       0      43        0.0%
BITBANK23          100      0       0      40        0.0%
BANK23             100      0       0      41        0.0%
BITBANK22          100      0       0      38        0.0%
BANK22             100      0       0      39        0.0%
BITBANK21          100      0       0      36        0.0%
BANK21             100      0       0      37        0.0%
BITBANK20          100      0       0      34        0.0%
BANK20             100      0       0      35        0.0%
BITBANK19          100      0       0      32        0.0%
BANK19             100      0       0      33        0.0%
BITBANK18          100      0       0      30        0.0%
BANK18             100      0       0      31        0.0%
BITBANK17          100      0       0      28        0.0%
BANK17             100      0       0      29        0.0%
BITBANK16          100      0       0      26        0.0%
BANK16             100      0       0      27        0.0%
BITBANK15          100      0       0      24        0.0%
BANK15             100      0       0      25        0.0%
BITBANK14          100      0       0      22        0.0%
BANK14             100      0       0      23        0.0%
BITBANK13          100      0       0      20        0.0%
BANK13             100      0       0      21        0.0%
BITBANK12          100      0       0      18        0.0%
BANK12             100      0       0      19        0.0%
BITBANK11          100      0       0      16        0.0%
BANK11             100      0       0      17        0.0%
BITBANK10          100      0       0      14        0.0%
BANK10             100      0       0      15        0.0%
BITBANK9           100      0       0      12        0.0%
BANK9              100      0       0      13        0.0%
BITBANK8           100      0       0      10        0.0%
BANK8              100      0       0      11        0.0%
BITBANK7           100      0       0       8        0.0%
BANK7              100      0       0       9        0.0%
BITBANK6           100      0       0       6        0.0%
BANK6              100      1      91       7       56.6%
BITBIGSFRhhlllh     E4      0       0      83        0.0%
BITBANK5            A0      0       0       4        0.0%
BANK5               A0     17      A0       5      100.0%
BITBIGSFRlllll      80      0       0     103        0.0%
BITBIGSFRhhllhh     71      0       0      81        0.0%
BITBIGSFRhhllll     64      0       0      84        0.0%
BITCOMRAM           5F      0       0       0        0.0%
COMRAM              5F     53      59       1       93.7%
BITBIGSFRlllhhh     29      0       0      91        0.0%
BITBIGSFRhhhhh      29      0       0      70        0.0%
BITBIGSFRlllhhl     1F      0       0      99        0.0%
BITBIGSFRlllhhh     16      0       0      92        0.0%
BITBIGSFRlllhhh     13      0       0      89        0.0%
BITBIGSFRlllhhh     11      0       0      93        0.0%
BITBIGSFRhhhhl       A      0       0      71        0.0%
BITBIGSFRlllhhh      9      0       0      95        0.0%
BITBIGSFRlllhhh      5      0       0      90        0.0%
BITBIGSFRhhhlll      5      0       0      77        0.0%
BITBIGSFRhhhlhh      5      0       0      73        0.0%
BITBIGSFRlhh         4      0       0      86        0.0%
BITBIGSFRhhllll      4      0       0      85        0.0%
BITBIGSFRhhllhh      3      0       0      82        0.0%
BITBIGSFRhhhlhh      2      0       0      72        0.0%
BITBIGSFRhhlhh       2      0       0      79        0.0%
BITBIGSFRhhlhl       2      0       0      80        0.0%
BITBIGSFRhhhlhh      2      0       0      74        0.0%
BITBIGSFRlllhlh      2      0       0     100        0.0%
BITBIGSFRlllhll      2      0       0     101        0.0%
BITBIGSFRhhhlll      2      0       0      78        0.0%
BITBIGSFRlllhhh      1      0       0      94        0.0%
BITBIGSFRlllhhh      1      0       0      97        0.0%
BITBIGSFRlllhhh      1      0       0      98        0.0%
BITBIGSFRhhhllh      1      0       0      76        0.0%
BITBIGSFRhhhlhl      1      0       0      75        0.0%
BITBIGSFRllllh       1      0       0     102        0.0%
BITBIGSFRllh         1      0       0      88        0.0%
BITBIGSFRlhl         1      0       0      87        0.0%
BIGSFR_1             0      0       0     200        0.0%
BIGSFR               0      0       0     200        0.0%
BITSFR_6             0      0       0     200        0.0%
SFR_6                0      0       0     200        0.0%
BITSFR_5             0      0       0     200        0.0%
SFR_5                0      0       0     200        0.0%
BITSFR_4             0      0       0     200        0.0%
SFR_4                0      0       0     200        0.0%
BITSFR_3             0      0       0     200        0.0%
SFR_3                0      0       0     200        0.0%
BITSFR_2             0      0       0     200        0.0%
SFR_2                0      0       0     200        0.0%
BITSFR_1             0      0       0     200        0.0%
SFR_1                0      0       0     200        0.0%
BITSFR               0      0       0     200        0.0%
SFR                  0      0       0     200        0.0%
STACK                0      0       0       2        0.0%
NULL                 0      0       0       0        0.0%
ABS                  0      0     18A     104        0.0%
DATA                 0      0     18A       3        0.0%
CODE                 0      0       0       0        0.0%


Microchip Technology PIC18 Macro Assembler V2.40 build 20220703182018 
Symbol Table                                                                                   Tue Apr 04 12:44:51 2023

                                _SPI1_ByteExchange 000000                             ??_I2C1_DefaultCallback 0501  
                                  ??_I2C1_IsBusCol 0501                               ??_Timer0_OverflowISR 0505  
                                  ??_I2C1_BusReset 0501                        UART1_TransmitISR@tempTxTail 0501  
                                              l119 1148                                                l146 1538  
                                              l238 1688                                                l426 126C  
                                              l523 1590                                                l508 1574  
                                              l471 16DA                                                l720 16BE  
                                              l297 15C4                                                l458 16E8  
                                              l484 16CC                                                l662 094A  
                                              l920 15DA                                                l944 11E4  
                                              l698 13E6                                                l858 0DBC  
                                              l947 11E6                                                l965 1556  
                                              l982 14F4                                                l978 1516  
                                              l986 14D2                         ??_INT0_SetInterruptHandler 050A  
                                              _abs 126E                                                _pad 100A  
                        __end_of_I2C1_DataTransmit 1716                                                prod 0004F3  
                                              tosl 0004FD                                                wreg 0004E8  
                                   _UART1_IsTxDone 000000                           _UART1_ParityErrorHandler 05A3  
                                   _UART1_ErrorGet 000000                                   __end_of_I2C1_ISR 0F88  
                                             l1042 15AA                                               ?_abs 0519  
                                             l1037 143C                                               l1045 10E6  
                                             l1061 0E5C                                               l1207 06E8  
                                             l1039 1462                                               l2301 08D6  
                                             l1077 0A4A                                               l2311 08E4  
                                             l2303 08D8                                               l2313 08E6  
                                             l2305 08DE                                               l4001 104C  
                                             l1194 0402                                               l3211 16C0  
                                             l2315 08EC                                               l2307 08E0  
                                             l4003 1050                                               l4011 0000  
                                             l2085 1676                                               l2309 08E2  
                                             l3213 16B2                                               l3221 14E8  
                                             l4005 106E                                               l4021 0080  
                                             l4013 0020                                               l3207 16DC  
                                             l2263 15AC                                               l3215 14F6  
                                             l3223 14B2                                               l4007 126E  
                                             l4031 00CE                                               l4023 009C  
                                             l4015 0034                                               l4103 1464  
                                             l4111 1592                                               l3241 111A  
                                             l3209 16CE                                               l2265 15BE  
                                             l3217 150A                                               l3225 14C6  
                                             l3401 0D38                                               l4009 1288  
                                             l4041 0172                                               l4033 00D6  
                                             l4025 00AC                                               l4017 0044  
                                             l4105 146C                                               l4113 15A6  
                                             l1810 0846                                               l3251 1128  
                                             l3243 111C                                               l3235 10E8  
                                             l2291 0848                                               l3219 14D4  
                                             l3411 0D4C                                               l3403 0D3C  
                                             l1803 027A                                               l4051 021A  
                                             l4043 0178                                               l4035 00E2  
                                             l4027 00B2                                               l4019 0064  
                                             l4115 1084                                               l4131 09F8  
                                             l4123 0952                                               l1820 12A4  
                                             l3261 1134                                               l3253 112A  
                                             l3245 111E                                               l3237 1112  
                                             l2293 0860                                               l3421 0D60  
                                             l3413 0D50                                               l3405 0D40  
                                             l4053 0234                                               l4045 017E  
                                             l4037 00EA                                               l4029 00C2  
                                             l4109 143C                                               l4133 0A1C  
                                             l4125 0976                                               l4117 094C  
                                             l4141 0F8C                                               l3263 1136  
                                             l3255 112C                                               l3247 1124  
                                             l3239 1116                                               l2295 0876  
                                             l3431 0D98                                               l3423 0D64  
                                             l3415 0D54                                               l3407 0D44  
                                             l1823 12AC                                               l4055 0244  
                                             l4039 00F0                                               l4047 01E2  
                                             l4071 0732                                               l4063 06EA  
                                             l4127 0996                                               l4135 0A38  
                                             l4143 0F9E                                               l1816 119C  
                                             l2289 1576                                               l3177 1518  
                                             l3265 1138                                               l3257 112E  
                                             l3249 1126                                               l3361 1256  
                                             l3353 122C                                               l2297 08D2  
                                             l3441 0DB2                                               l3433 0DA2  
                                             l3425 0D68                                               l3417 0D58  
                                             l3409 0D48                                               l4057 024A  
                                             l4049 01FC                                               l4073 0742  
                                             l4065 0712                                               l4137 0A3A  
                                             l4129 09CE                                               l4145 0FBE  
                                             l3179 152C                                               l3259 1130  
                                             l3363 1258                                               l3355 1232  
                                             l2299 08D4                                               l3371 13BE  
                                             l3443 0DB6                                               l3435 0DA6  
                                             l3427 0D78                                               l3419 0D5C  
                                             l1835 0EF2                                               l1843 122A  
                                             l4059 025A                                               l4083 0808  
                                             l4075 0762                                               l4067 0720  
                                             l4147 0FDE                                               l4139 0F88  
                                             l1780 102C                                               l3365 126A  
                                             l3357 1242                                               l3373 13CC  
                                             l3445 0DBA                                               l3437 0DAA  
                                             l3429 0D88                                               l3381 0CFC  
                                             l4077 0782                                               l4069 072E  
                                             l4093 114A                                               l4149 0FFE  
                                             l1758 148A                                               l3359 1244  
                                             l3375 13DC                                               l3439 0DAE  
                                             l3391 0D24                                               l3383 0CFE  
                                             l1791 0094                                               l4079 07D8  
                                             l4087 081A                                               l4095 1156  
                                             l1784 1082                                               l1792 00DA  
                                             l3377 13DE                                               l3393 0D28  
                                             l3385 0D0C                                               l3561 1564  
                                             l4097 1172                                               l3641 0E4A  
                                             l3379 13E0                                               l3395 0D2C  
                                             l3387 0D1A                                               l4099 1192  
                                             l3643 0E4C                                               l3635 0DC2  
                                             l3397 0D30                                               l3389 0D20  
                                             l3557 1558                                               l3901 0EE0  
                                             l1789 008C                                               l3637 0DE6  
                                             l3629 0DBE                                               ?_pad 051A  
                                             l3399 0D34                                               l3559 1560  
                                             l3911 120A                                               l3921 02B2  
                                             l3913 027C                                               l3905 11E8  
                                             l3931 030E                                               l3923 02C0  
                                             l3915 0280                                               l3907 11F4  
                                             l3941 0378                                               l3933 0316  
                                             l3925 02E0                                               l3917 028E  
                                             l3909 1206                                               l3951 03C2  
                                             l3943 0398                                               l3935 032A  
                                             l3927 02E4                                               l3919 02AE  
                                             l3863 15C6                                               l3871 11B6  
                                             l3953 03E2                                               l3945 039A  
                                             l3937 0338                                               l3929 02F0  
                                             l3961 0598                                               l3881 11E2  
                                             l3873 11C6                                               l3947 03AC  
                                             l3939 034A                                               l3971 0608  
                                             l3963 05B8                                               l3875 11D6  
                                             l3867 11A0                                               l3883 153C  
                                             l3891 0E5E                                               l3949 03B2  
                                             l3981 0680                                               l3973 0610  
                                             l3965 05BC                                               l3957 0586  
                                             l3877 11DC                                               l3869 11AE  
                                             l3885 153C                                               l3893 0E70  
                                             l3983 0692                                               l3975 0624  
                                             l3967 05CA                                               l3959 058A  
                                             l3879 11E0                                               l3887 1550  
                                             l3895 0E82                                               l3977 0632  
                                             l3985 0698                                               l3969 05EA  
                                             l3897 0E8C                                               l3993 100A  
                                             l3987 06A8                                               l3979 0660  
                                             l3899 0EAA                                               l3995 1018  
                                             l3989 06C8                                               l3997 1024  
                                             l3999 1038                                               STR_1 FFF5  
                                             STR_2 FFFA                                               STR_3 FFE7  
                                             STR_4 FFEE                                               STR_5 FFA2  
                                             STR_6 FF5D                                               STR_7 FFA2  
                                             STR_8 FF9F                                  _I2C1_Deinitialize 000000  
                                             u3000 01FC                                               u3001 01F8  
                                             u3010 021A                                               u3011 0216  
                                             u3020 0234                                               u3100 0996  
                                             u3021 0230                                               u3101 0992  
                                             _LATA 0004BE                                               u3030 0244  
                                             u3110 09CE                                               _LATB 0004BF  
                                             u3031 0240                                               u3111 09CA  
                                             _LATC 0004C0                                               u3040 0712  
                                             u2240 0DE6                                               _LATD 0004C1  
                                             u3041 070E                                               u2241 0DE2  
                                             _LATE 0004C2                                               u3050 0762  
                                             u3130 0A1C                                               u2250 0E5C  
                                             _LATF 0004C3                                               u3051 075E  
                                             u3131 0A18                                               u2251 0E58  
                                             u3060 0782                                               u3140 0A4A  
                                             u3061 077E                                               u3141 0A46  
                                             u3070 1192                                               u3071 118E  
                                             u1800 150A                                               u3080 144C  
                                             u3128 09E4                                               u1801 1506  
                                             u3081 1446                                               u3129 09F8  
                                             u1810 14E8                                               u3090 0976  
                                             u1811 14E4                                               u3091 0972  
                                             u1820 14C6                                               u2700 11AE  
                                             u3157 1120                                               u1821 14C2  
                                             u2701 11AA                                               u2710 11C6  
                                             u3086 144E                                               u2711 11C2  
                                             u2720 1550                                               u2801 02EA  
                                             u2721 154C                                               u2810 030E  
                                             u2730 0E70                                               u2811 030A  
                                             u2731 0E6C                                               u2820 0338  
                                             u2900 06A8                                               u2740 0E82  
                                             u2821 0334                                               u2901 06A4  
                                             u2741 0E7E                                               u1790 152C  
                                             u2830 0378                                               u2750 0EAA  
                                             u2910 1018                                               u1791 1528  
                                             u2831 0374                                               u2751 0EA6  
                                             u2911 1014                                               u2840 03C2  
                                             u2680 15D8                                               u2760 0EE0  
                                             u2920 106E                                               u2841 03BE  
                                             u2681 15D2                                               u2761 0EDC  
                                             u2921 106A                                               u2850 0598  
                                             u2930 1288                                               u2690 15DA  
                                             u2770 122A                                               u2851 0594  
                                             u2931 1284                                               u2771 1226  
                                             u2780 028E                                               u2860 05CA  
                                             u2940 0030                                               u2781 028A  
                                             u2861 05C6                                               u2941 002A  
                                             u2790 02C0                                               u2870 0608  
                                             u2950 0032                                               u2791 02BC  
                                             u2871 0604                                               u2880 0632  
                                             u2960 0044                                               u2881 062E  
                                             u2961 0040                                               u2890 0660  
                                             u2970 0080                                               u2891 065C  
                                             u2971 007C                                               u2980 00AC  
                                             u2981 00A8                                               u2990 00C2  
                                             u2991 00BE                                               _SPI1 FF2B  
                                             _WPUA 000401                                               _WPUB 000409  
                                             _WPUC 000411                                               _WPUD 000419  
                                             _WPUE 000421                                               _WPUF 000429  
                                    _INT2_CallBack 138C                                   ??_I2C1_ReadStart 0502  
                                             abs@a 0519                                    ??_I2C1_StopSend 0502  
                                             _dbuf 05C9                                               _main 0F88  
                                             _dtoa 0000                                       fp__toggleLed 0000  
                                             _prec 05C3                                               pad@i 0521  
                                             pad@p 051E                                               fsr1h 0004E2  
                                             fsr2h 0004DA                                               indf2 0004DF  
                                             fsr1l 0004E1                                               pad@w 0523  
                                             fsr2l 0004D9                          ?_INT2_SetInterruptHandler 0507  
                                             prodl 0004F3                                               start 001A  
                                  _UART1_IsRxReady 000000                                    _UART1_IsTxReady 15C6  
                                     ___param_bank 000000                                         _i2c1Status 0590  
                                            ??_abs 051B                                              ??_pad 0520  
                                ??_I2C1_CounterGet 0501                                  ??_I2C1_CounterSet 0501  
                                 __end_of_INT2_ISR 1706                              __end_of_Task_register 0E5E  
                                ?_I2C1_BufferClear 0501                                  __end_of_I2C1_Host FF2B  
                                  __end_of___aodiv 0404                                              ?_main 0501  
                                            ?_dtoa 0525                                    __end_of___aomod 06EA  
                 _UART1_TxCompleteCallbackRegister 000000                                              _U1P1H 0002A6  
                                            _U1P2H 0002A8                                              _U1P1L 0002A5  
                                            _U1P3H 0002AA                                              _U1P2L 0002A7  
                                            _U1P3L 0002A9                                              _IOCAF 000407  
                                            _IOCBF 00040F                                              _IOCCF 000417  
                                            _IOCAN 000406                                              _IOCEF 000427  
                                            _IOCAP 000405                                              _IOCBN 00040E  
                                            _IOCBP 00040D                                              _IOCCN 000416  
                                            _IOCCP 000415                                              _IOCEN 000426  
                                            _IOCEP 000425                                              _U1UIR 0002B1  
                                            _U1RXB 0002A1                                              i2l201 172A  
                                            i2l210 12E8                                              _U1TXB 0002A3  
                                            i2l204 171C                                              i2l220 14B0  
                                            i2l223 161C                                              i2l207 173C  
                                            i2l151 0F62                                              i2l232 1632  
                                            i2l216 1736                                              i2l241 16B0  
                                            i2l250 16FC                                              i2l226 165E  
                                            i2l235 1674                                              i2l171 1606  
                                            i2l244 1724                                              i2l156 0F86  
                                            i2l229 1648                                              i2l165 0BF8  
                                            i2l149 0F1A                                              i2l238 169C  
                                            i2l174 15F0                                              i2l247 16F2  
                                            i2l168 0C28                                              i2l192 1730  
                                            i2l440 04E0                                              i2l432 0450  
                                            i2l186 143A                                              i2l178 1410  
                                            i2l442 051C                                              i2l434 0474  
                                            i2l195 170C                                              i2l443 057C  
                                            i2l444 0558                                              i2l436 0498  
                                            i2l189 1748                                              i2l198 1714  
                                            i2l438 04BC                                              i2l448 057C  
                                            i2l481 13BC                                              i2l723 1742  
                                            i2l477 1704                                              i2l717 138A  
                                            i2l487 1746                                              i2l665 1744  
                                            i2l940 0B3E                                              i2l950 1354  
                                            i2l953 1356                                              i2l971 173E  
                                            i2l968 1740                                 ??_I2C1_BufferClear 0501  
                                            _OSCEN 0000B3                                              _UART1 FEC5  
                                     vfpfcnvrt@fmt 054A                                              _TMR0H 000319  
                                            _TMR0L 000318                                              _TRISA 0004C6  
                                            _TRISB 0004C7                                              _TRISC 0004C8  
                                            _TRISD 0004C9                                              _TRISE 0004CA  
                                            _TRISF 0004CB                                   ??_I2C1_StartSend 0501  
                                ??_I2C1_Initialize 050A              fp__UART1_FramingErrorCallbackRegister 0000  
       __end_of_UART1_FramingErrorCallbackRegister 1518               ??_UART1_FramingErrorCallbackRegister 050A  
              ?_UART1_FramingErrorCallbackRegister 0507                 _UART1_FramingErrorCallbackRegister 14F6  
                          __end_of_PIN_MANAGER_IOC 1746                                              _flags 05C7  
                          ??_I2C1_CallbackRegister 050A                                              _fputc 0E5E  
                                            _fputs 11E8                                              _tasks 0600  
                                            pad@fp 051A                                              _width 05C1  
                                   fp__UART1_Write 0000                                              _putch 153A  
                                            dtoa@d 0527                                              dtoa@i 0546  
                                            dtoa@n 053D                                              dtoa@p 0539  
                                            dtoa@s 0545                                              dtoa@w 053B  
                                   ?_INT2_CallBack 0501                           _INT1_SetInterruptHandler 16CE  
                         ??_I2C1_InterruptsDisable 0501                                              pclath 0004FA  
                                            pclatu 0004FB                                              tablat 0004F5  
                            I2C1_DataTransmit@data 0501                                              status 0004D8  
                                     ??_I2C1_Close 0501                                 fp__SPI1_Initialize 0000  
                                     __end_of_SPI1 FF46                                    __initialization 12EA  
                             _UART1_TransmitEnable 000000                                       __end_of_main 100A  
                                     __end_of_dtoa 027C                                  _I2C1_IsBusTimeOut 1634  
                 _UART1_RxCompleteInterruptHandler 059D                                 ?_I2C1_IsBusTimeOut 0501  
                      ?_INTERRUPT_InterruptManager 0501                                       ?_UART1_Write 0501  
                                           ??_main 0554                                             ??_dtoa 052F  
                                    __activetblptr 000003                                ??_I2C1_IsBusTimeOut 0501  
                                 _UART1_Initialize 0CFC   UART1_ParityErrorCallbackRegister@callbackHandler 0507  
UART1_OverrunErrorCallbackRegister@callbackHandler 0507  UART1_FramingErrorCallbackRegister@callbackHandler 0507  
             I2C1_CallbackRegister@callbackHandler 0507                                 __end_of_I2C1_Close 143C  
                            _I2C1_InterruptsEnable 1676                                             ?_fputc 050A  
                                           _ACTCON 0000AC                                             ?_fputs 0513  
                                 _UART1_ReceiveISR 0A4C                                             _ANSELA 000400  
                                           ?_putch 0501                                             _ANSELB 000408  
                                           _ANSELC 000410                                             _ANSELD 000418  
                                           _ANSELE 000420                                             _ANSELF 000428  
                                           _T0CON0 00031A                                             _T0CON1 00031B  
                                           _RB1I2C 000289                                             _RB2I2C 000288  
                                           _U1CON0 0002AB                                             _U1CON1 0002AC  
                                           _U1CON2 0002AD                                             _RC3I2C 000287  
                                           _RC4I2C 000286                                             _U1BRGH 0002AF  
                                           _U1FIFO 0002B0                                             _U1BRGL 0002AE  
                                           _RB1PPS 00020A                                             _RB2PPS 00020B  
                                           _RC4PPS 000215                                             _ODCONA 000402  
                                           _ODCONB 00040A                                             _RC6PPS 000217  
                                           _RF0PPS 000229                                             _ODCONC 000412  
                                           _ODCOND 00041A                                             _ODCONE 000422  
                                           _ODCONF 00042A                                             i2l1053 0C8A  
                                           i2l1055 0CFA                                             i2l3201 16FA  
                                           i2l3203 1738                                             i2l3301 12BA  
                                           i2l3311 12CC                                             i2l3303 12BE  
                                           i2l3233 168A                                             i2l3321 12DA  
                                           i2l3313 12CE                                             i2l3305 12C2  
                                           i2l3331 12E6                                             i2l3323 12DC  
                                           i2l3315 12D4                                             i2l3307 12C6  
                                           i2l3181 169E                                             i2l3325 12DE  
                                           i2l3317 12D6                                             i2l3309 12CA  
                                           i2l3333 1660                                             i2l3341 161E  
                                           i2l3501 0F82                                             i2l3183 16A6  
                                           i2l3327 12E0                                             i2l3319 12D8  
                                           i2l3511 0B66                                             i2l3503 0B40  
                                           i2l3191 1708                                             i2l3271 1402  
                                           i2l3329 12E4                                             i2l3345 1634  
                                           i2l3337 1608                                             i2l3185 1732  
                                           i2l3513 0B7A                                             i2l3521 0BA0  
                                           i2l3505 0B54                                             i2l3281 142E  
                                           i2l3193 172C                                             i2l3273 140C  
                                           i2l3601 0B08                                             i2l3195 171E  
                                           i2l3291 164A                                             i2l3187 1710  
                                           i2l3523 0BB4                                             i2l3531 0BD6  
                                           i2l3515 0B8E                                             i2l3507 0B5A  
                                           i2l3283 1436                                             i2l3275 1412  
                                           i2l3267 13E8                                             i2l3611 0B38  
                                           i2l3603 0B0C                                             i2l3197 16EA  
                                           i2l3189 1718                                             i2l3285 148C  
                                           i2l3533 0BEA                                             i2l3525 0BC8  
                                           i2l3517 0B94                                             i2l3509 0B5E  
                                           i2l3277 141E                                             i2l3269 13FC  
                                           i2l3349 1726                                             i2l3541 15F2  
                                           i2l3461 0C2E                                             i2l3613 0B3C  
                                           i2l3605 0B12                                             i2l3621 1344  
                                           i2l3199 16F4                                             i2l3295 12AE  
                                           i2l3287 1490                                             i2l3535 0BF0  
                                           i2l3527 0BCE                                             i2l3519 0B98  
                                           i2l3279 1426                                             i2l3543 1600  
                                           i2l3367 138C                                             i2l3463 0C52  
                                           i2l3471 0CE8                                             i2l3455 0C2A  
                                           i2l3551 1358                                             i2l3623 134A  
                                           i2l3297 12B2                                             i2l3289 14A4  
                                           i2l3537 0BFC                                             i2l3481 0F28  
                                           i2l3545 15DC                                             i2l3369 13A2  
                                           i2l3473 0CEA                                             i2l3465 0C74  
                                           i2l3553 135A                                             i2l3609 0B28  
                                           i2l3625 134E                                             i2l3617 1322  
                                           i2l3801 0538                                             i2l3299 12B6  
                                           i2l3539 0C0E                                             i2l3491 0F52  
                                           i2l3483 0F36                                             i2l3475 0EF4  
                                           i2l3547 16FE                                             i2l3467 0CAC  
                                           i2l3555 1370                                             i2l3619 1332  
                                           i2l3803 0566                                             i2l3485 0F48  
                                           i2l3493 0F5A                                             i2l3477 0F04  
                                           i2l3549 1700                                             i2l3469 0CD4  
                                           i2l3805 0574                                             i2l3487 0F4C  
                                           i2l3479 0F12                                             i2l3591 0A9C  
                                           i2l3583 0A4C                                             i2l3497 0F70  
                                           i2l3489 0F50                                             i2l3593 0AB6  
                                           i2l3585 0A64                                             _INLVLA 000404  
                                           _INLVLB 00040C                                             i2l3499 0F7E  
                                           i2l3595 0AC6                                             i2l3587 0A74  
                                           i2l3771 0428                                             _INLVLC 000414  
                                           _INLVLD 00041C                                             i2l3597 0ADA  
                                           i2l3589 0A88                                             i2l3781 046C  
                                           i2l3773 042C                                             _INLVLE 000424  
                                           _INLVLF 00042C                                             i2l3599 0AEE  
                                           i2l3791 04CA                                             i2l3783 0482  
                                           i2l3775 043A                                             i2l3767 040C  
                                           i2l3793 04D8                                             i2l3785 0490  
                                           i2l3777 0448                                             i2l3769 041A  
                                           i2l3795 04EE                                             i2l3787 04A6  
                                           i2l3779 045E                                             i2l3797 04FC  
                                           i2l3789 04B4                                             i2l3799 052A  
                          __end_of_UART1_IsTxReady 15DC                                             _OSCFRQ 0000B1  
                        __end_of_I2C1_IsBusTimeOut 164A                                         _Task_synch 0C2A  
                                           _Timer0 FF46                                       vfprintf@cfmt 0550  
                                        ??___aodiv 0517                                          ??___aomod 0517  
                                        ?_I2C1_ISR 0501                                             clear_0 12F0  
                                           clear_1 12FC                                             isa$std 000001  
                                           _printf 1464                                             pad@buf 051C  
                          fp__I2C1_DefaultCallback 0000                                             dtoa@fp 0525  
                                ?_CLOCK_Initialize 0501                                             fputc@c 050A  
             __end_of_INT2_DefaultInterruptHandler 1748                       _INT2_DefaultInterruptHandler 1746  
                                           fputs@c 0517                                             fputs@i 0518  
                                           fputs@s 0513                                 ??_CLOCK_Initialize 0507  
                                     __mediumconst FEC4                                             tblptrh 0004F7  
                                           tblptrl 0004F6                                             tblptru 0004F8  
            fp__UART1_OverrunErrorCallbackRegister 0000         __end_of_UART1_OverrunErrorCallbackRegister 14F6  
             ??_UART1_OverrunErrorCallbackRegister 050A                ?_UART1_OverrunErrorCallbackRegister 0507  
               _UART1_OverrunErrorCallbackRegister 14D4                                    ??_INT2_CallBack 0501  
                                 __end_of_vfprintf 119E           INT2_SetInterruptHandler@InterruptHandler 0507  
         INT1_SetInterruptHandler@InterruptHandler 0507           INT0_SetInterruptHandler@InterruptHandler 0507  
                                 ?_PIN_MANAGER_IOC 0501                                  _UART1_AutoBaudSet 000000  
                                _SYSTEM_Initialize 1558                                      ??_I2C1_RX_ISR 0501  
               fp__Timer0_OverflowCallbackRegister 0000            __end_of_Timer0_OverflowCallbackRegister 16C0  
                ??_Timer0_OverflowCallbackRegister 050A                   ?_Timer0_OverflowCallbackRegister 0507  
                  _Timer0_OverflowCallbackRegister 16B2                                         __accesstop 0560  
                          __end_of__initialization 131C                                      ??_I2C1_TX_ISR 0502  
                                    ??_I2C1_IsAddr 0501                                      ??_I2C1_IsData 0501  
                                    ??_I2C1_IsNack 0501                                          ?_INT2_ISR 0501  
                                   _SPI1_ByteWrite 000000                                 ?_SYSTEM_Initialize 0501  
                                    ___rparam_used 000001                                      __end_of_UART1 FF0D  
                                   __pcstackCOMRAM 0501                                ??_SYSTEM_Initialize 050A  
                            _UART1_TransmitDisable 000000                                      __end_of_fputc 0EF4  
                                    __end_of_fputs 122C                                  ??_SPI1_Initialize 0507  
                                    __end_of_putch 1558                                         ??_I2C1_ISR 0502  
                               _spi1_configuration FF58                   __end_of_INT2_SetInterruptHandler 16CE  
                        _UART1_FramingErrorHandler 05A9                    fp__INT2_DefaultInterruptHandler 0000  
                    ?_INT2_DefaultInterruptHandler 0501                             ?_I2C1_InterruptsEnable 0501  
                                    ?_Task_execute 0501                                            ??_fputc 050E  
                        __end_of_SYSTEM_Initialize 1576                                            ??_fputs 0517  
                                          ??_putch 0509                                         __pbssBANK5 0560  
                                       __pbssBANK6 0600                                   ?_UART1_IsTxReady 0501  
                            _INT0_InterruptHandler 05B5                                         ??_INT2_ISR 0501  
                                  _I2C1_CounterGet 1738                                    _I2C1_CounterSet 1716  
                                          IVTBASEH 00045E                                            IVTBASEL 00045D  
                                          IVTBASEU 00045F                                 _UART1_Deinitialize 000000  
                                      ?_Task_synch 0501                                __end_of_I2C1_RX_ISR 1608  
                              __end_of_I2C1_TX_ISR 15F2                                __end_of_I2C1_IsAddr 1676  
                              __end_of_I2C1_IsData 1634                                __end_of_I2C1_IsNack 161E  
                                          _I2C1CLK 00029C                                            _I2C1CNT 00028D  
                                          _I2C1ERR 000297                                            _I2C1PIE 00029B  
                                          _I2C1PIR 00029A                                            _I2C1RXB 00028B  
                                          _I2C1TXB 00028C                                    _I2C1_Initialize 10E8  
                           _I2C1_InterruptsDisable 169E                              __end_of_I2C1_IsBusCol 1660  
                                    Task_execute@i 0690                                            ?_printf 05F9  
                                      Task_synch@i 0504                              __end_of_I2C1_BusReset 12EA  
                                          _U1ERRIE 0002B3                                            _U1ERRIR 0002B2  
                                        _I2C1STAT1 000299                         ??_INT1_SetInterruptHandler 050A  
                                          _INT2PPS 000240                                            _U1RXCHK 0002A2  
                                          _U1TXCHK 0002A4                                            _U1RXPPS 000272  
                                        _I2C1_Read 000000                                          _I2C1_Host FF0D  
                                   ??_Task_execute 05FD                                            _OSCCON1 0000AD  
                                          _OSCCON3 0000AF                            i2_I2C1_InterruptsEnable 168A  
                                          _SPI1CLK 00008C                                            _SPI1RXB 000080  
                                          _SPI1TXB 000081                                            _OSCTUNE 0000B0  
                                          _SLRCONA 000403                                            _SLRCONB 00040B  
                                          _SLRCONC 000413                                            _SLRCOND 00041B  
                                          _SLRCONE 000423                                            _SLRCONF 00042B  
                              fp__UART1_Initialize 0000                      __end_of_I2C1_CallbackRegister 153A  
                              fp__UART1_ReceiveISR 0000                          ?_INT0_SetInterruptHandler 0507  
                            __end_of_I2C1_StopSend 14B2                                    fp__printCounter 0000  
                                          __Hparam 0000                                            __Lparam 0000  
                         __end_of_UART1_Initialize 0DBE                                        _Timer0_Stop 000000  
                fp__Timer0_DefaultOverflowCallback 0000                   ??_Timer0_DefaultOverflowCallback 0501  
                  ?_Timer0_DefaultOverflowCallback 0501                                            ___aodiv 027C  
                                  fp__printWelcome 0000                                            ___aomod 0586  
                                _Timer0_Initialize 13BE                           __end_of_UART1_ReceiveISR 0B40  
                                        ?_vfprintf 05F3                       __end_of_I2C1_InterruptsClear 1726  
                                          __pcinit 12EA                                 ?_Timer0_Initialize 0501  
                                          __ramtop 2600                                            __ptext0 0F88  
                                          __ptext1 0DBE                                            __ptext2 094C  
                                          __ptext3 1592                                            __ptext4 1084  
                                          __ptext5 143C                                            __ptext6 1464  
                                          __ptext7 114A                                            __ptext8 06EA  
                                          __ptext9 0000                                            _counter 05C8  
                              _I2C1_RestartDisable 1732                                        _I2C1ERRbits 000297  
                         ??_PIN_MANAGER_Initialize 0507                                        _I2C1PIEbits 00029B  
                              ??_Timer0_Initialize 050A                                        _I2C1PIRbits 00029A  
                                        _PIE10bits 0004A8                            __end_of_I2C1_CounterGet 173E  
                          __end_of_I2C1_CounterSet 171E                               end_of_initialization 131C  
                                        _U1UIRbits 0002B1                           _INT2_SetInterruptHandler 16C0  
                   ??_INT2_DefaultInterruptHandler 0501                                          _PIR10bits 0004B8  
                                          fputc@fp 050C                                        _I2C1_RX_ISR 15F2  
                                          fputs@fp 0515                                        _I2C1_TX_ISR 15DC  
                                      _I2C1_IsAddr 1660                                        _I2C1_IsData 161E  
                                      _I2C1_IsNack 1608                                        _I2C1_IsBusy 000000  
                            I2C1_AddrTransmit@addr 0501                               ?_I2C1_RestartDisable 0501  
                          __end_of_I2C1_Initialize 114A                          __end_of_Timer0_Initialize 13E8  
                                __end_of_toggleLed 1464                                  __end_of_vfpfcnvrt 0848  
                                  _SPI1_BufferRead 000000                                          _SPI1TCNTL 000082  
                                          postdec1 0004E5                                            postdec2 0004DD  
                                          postinc0 0004EE                                            postinc1 0004E6  
                                          postinc2 0004DE                                   vfpfcnvrt@convarg 05E9  
                                 _I2C1_DataReceive 1726                                      ?_printCounter 0501  
                                       ??_vfprintf 0550                                          _SPI1_Open 000000  
                                UART1_Write@txData 0508                   _UART1_DefaultParityErrorCallback 000000  
                            _INT1_InterruptHandler 05B2                                      ?_printWelcome 0501  
                              _SPI1_BufferExchange 000000                          ??i2_I2C1_InterruptsEnable 0501  
   Timer0_OverflowCallbackRegister@CallbackHandler 0507                                          _TRISCbits 0004C8  
                 _UART1_TxCompleteInterruptHandler 05A0                                  _UART1_TransmitISR 1322  
                                  _SPI1_Initialize 15AC                              ??_I2C1_RestartDisable 0501  
                               ?_UART1_TransmitISR 0501                           fp__I2C1_CallbackRegister 0000  
                             __end_of_Task_execute 0A4C                                     ??_printCounter 0554  
                                   __end_of_Timer0 FF58                                ??_UART1_TransmitISR 0501  
                     __end_of_INTERRUPT_Initialize 126E                                     _I2C1_ERROR_ISR 0B40  
                     _INT0_DefaultInterruptHandler 000000                                        vfpfcnvrt@ap 054C  
                                      vfpfcnvrt@cp 05F1                                        vfpfcnvrt@fp 0548  
                                   ??_printWelcome 0554                                      _Task_register 0DBE  
                          ??_I2C1_InterruptsEnable 0507                                     __end_of_printf 148C  
                              start_initialization 12EA                                        __end_of_abs 12AE  
                                      __end_of_pad 1084                                   ?_I2C1_CounterGet 0501  
                                 ?_I2C1_CounterSet 0501                          __end_of_UART1_TransmitISR 1358  
                                      putch@txData 0509                                         ivt0x8_base 0008  
                            __end_of_INT2_CallBack 13BE                                   _I2C1_BufferClear 16F4  
                                    _uart1RxBuffer 0580                               _I2C1_InterruptsClear 171E  
                                    _uart1TxBuffer 0650                                       ??_Task_synch 0501  
                                 ?_I2C1_Initialize 0501                             __end_of_I2C1_ERROR_ISR 0C2A  
                          ?_I2C1_InterruptsDisable 0501                                        vfprintf@fmt 05F5  
                                   ?_Task_register 0507                           UART1_ReceiveISR@regValue 0501  
                                         ??_printf 0552                       __end_of_I2C1_ErrorFlagsClear 16F4  
                                    _SPI1_ByteRead 000000                                        __pbssCOMRAM 0554  
                 __end_of_INT0_SetInterruptHandler 16EA                                      __pcstackBANK5 05E9  
                                    __pcstackBANK6 0690                                   ___aodiv@dividend 0507  
                               __end_of_Task_synch 0CFC                            __end_of_SPI1_Initialize 15C6  
                         _UART1_RxInterruptHandler 05B8                       __end_of_I2C1_DefaultCallback 174A  
                            ?_I2C1_InterruptsClear 0501                              _INT2_InterruptHandler 05AF  
                   __end_of_I2C1_InterruptsDisable 16B2                             _PIN_MANAGER_Initialize 0848  
                                        _dtoa$2853 0537                                    ?_I2C1_ERROR_ISR 0501  
                                ?_UART1_Initialize 0501                                     _I2C1_ReadStart 13E8  
                                    __pmediumconst FEC4                                           ?___aodiv 0507  
                       __end_of_Timer0_OverflowISR 138C                                 fp__UART1_IsTxReady 0000  
                                         ?___aomod 0507                                   ___aodiv@quotient 0519  
                                         _I2C1ADB1 00028F                              UART1_Write@tempTxHead 0507  
                               ??_UART1_Initialize 050A                                           _I2C1CON0 000294  
                                         _I2C1CON1 000295                                           _I2C1CON2 000296  
                                ?_UART1_ReceiveISR 0501                                           _I2C1_ISR 0EF4  
                                 _uart1RxLastError 05C5                                      ??_UART1_Write 0507  
                     ??_INTERRUPT_InterruptManager 0505                                 ??_UART1_ReceiveISR 0501  
                       ??_INT2_SetInterruptHandler 050A                         UART1_ReceiveISR@tempRxHead 0502  
           __end_of_Timer0_DefaultOverflowCallback 1744                     _Timer0_DefaultOverflowCallback 1742  
                           I2C1_CounterSet@counter 0501                               __end_of_printCounter 15AC  
                         __end_of_I2C1_DataReceive 172C                                        _U1ERRIRbits 0002B2  
                             _INTERRUPT_Initialize 122C                                         _I2C1SDAPPS 000270  
                                       _I2C1SCLPPS 000271                                   _CLOCK_Initialize 1576  
                                   _I2C1_StartSend 172C                                       ?_I2C1_RX_ISR 0501  
                                     ?_I2C1_TX_ISR 0501                               __end_of_printWelcome 10E8  
                                     ?_I2C1_IsAddr 0501                                           _INT2_ISR 16FE  
                                     ?_I2C1_IsData 0501                                       ?_I2C1_IsNack 0501  
                                         _LATFbits 0004C3                   _UART1_RxCompleteCallbackRegister 000000  
                            _I2C1_CallbackRegister 1518                          ?_INT1_SetInterruptHandler 0507  
                                         _PIE0bits 00049E                                           _PIE3bits 0004A1  
                                         _PIE4bits 0004A2                                           _PIE7bits 0004A5  
                                       _I2C1_Close 1412                                       _SPI1CON0bits 000084  
                           __end_of_I2C1_ReadStart 1412                                           i2u200_40 0F28  
                                         i2u200_41 0F24                                           i2u201_40 0F36  
                                         i2u201_41 0F32                                           i2u210_40 0BEA  
                                         i2u202_40 0F48                                           i2u210_41 0BE6  
                                         i2u202_41 0F44                                           i2u211_40 0C0E  
                                         i2u203_40 0F70                                           i2u211_41 0C0A  
                                         i2u203_41 0F6C                                           i2u204_40 0F7E  
                                         i2u220_40 0AEE                                           i2u204_41 0F7A  
                                         i2u220_41 0AEA                                           i2u212_48 0C14  
                                         i2u205_40 0B54                                           i2u213_40 1370  
                                         i2u212_49 0C28                                           i2u205_41 0B50  
                                         i2u213_41 136C                                           i2u206_40 0B7A  
                                         i2u222_40 0B24                                           i2u221_48 0AF4  
                                         i2u206_41 0B76                                           i2u222_41 0B20  
                                         i2u221_49 0B08                                           i2u207_40 0B8E  
                                         i2u214_48 1376                                           i2u223_40 1332  
                                         i2u207_41 0B8A                                           i2u214_49 138A  
                                         i2u223_41 132E                                           i2u208_40 0BB4  
                                         i2u216_40 0A74                                           i2u240_40 0428  
                                         i2u208_41 0BB0                                           i2u216_41 0A70  
                                         i2u240_41 0424                                           i2u209_40 0BC8  
                                         i2u217_40 0A9C                                           i2u241_40 043A  
                                         i2u209_41 0BC4                                           i2u217_41 0A98  
                                         i2u241_41 0436                                           i2u250_40 04D8  
                                         i2u242_40 0448                                           i2u250_41 04D4  
                                         i2u242_41 0444                                           i2u219_40 0AC6  
                                         i2u218_48 0AA2                                           i2u251_40 04EE  
                                         i2u243_40 045E                                           i2u219_41 0AC2  
                                         i2u218_49 0AB6                                           i2u251_41 04EA  
                                         i2u243_41 045A                                           i2u252_40 04FC  
                                         i2u244_40 046C                                           i2u252_41 04F8  
                                         i2u244_41 0468                                           i2u316_47 12D0  
                                         i2u245_40 0482                                           i2u245_41 047E  
                                    _I2C1STAT0bits 000298                                           i2u190_40 1646  
                                         i2u254_40 052A                                           i2u253_48 0502  
                                         i2u246_40 0490                                           i2u190_41 1640  
                                         i2u254_41 0526                                           i2u253_49 0518  
                                         i2u246_41 048C                                           i2u190_46 1648  
                                         i2u183_40 13FC                                           i2u191_40 13A2  
                                         i2u255_40 0538                                           i2u247_40 04A6  
                                         i2u239_40 041A                                           i2u183_41 13F8  
                                         i2u191_41 139E                                           i2u255_41 0534  
                                         i2u247_41 04A2                                           i2u239_41 0416  
                                    _I2C1STAT1bits 000299                                           _PIR0bits 0004AE  
                                         i2u184_40 14A4                                           i2u248_40 04B4  
                                         i2u184_41 14A0                                           i2u248_41 04B0  
                                         i2u185_40 165C                                           i2u192_48 13A8  
                                         i2u257_40 0566                                           i2u256_48 053E  
                                         i2u249_40 04CA                                           i2u185_41 1656  
                                         i2u192_49 13BC                                           i2u257_41 0562  
                                         i2u256_49 0554                                           i2u249_41 04C6  
                                         _PIR1bits 0004AF                                           i2u185_46 165E  
                                         i2u186_40 1672                                           i2u194_40 0C52  
                                         i2u258_40 0574                                           i2u186_41 166C  
                                         i2u194_41 0C4E                                           i2u258_41 0570  
                                         i2u187_40 1674                                           i2u195_40 0C74  
                                         i2u195_41 0C70                                           _SPI1BAUD 000089  
                                         i2u188_40 161A                                           i2u196_40 0CAC  
                                         i2u188_41 1614                                           i2u196_41 0CA8  
                                         i2u188_46 161C                                           i2u189_40 1630  
                                         i2u197_40 0CFA                                           i2u189_41 162A  
                                         i2u197_41 0CF6                                           _PIR3bits 0004B1  
                                         i2u189_46 1632                                           i2u198_40 0F04  
                                         i2u198_41 0F00                                           i2u199_40 0F12  
                                         i2u199_41 0F0E                                           _PIR4bits 0004B2  
                                         _SPI1CON0 000084                                           _SPI1CON1 000085  
                                         _SPI1CON2 000086                                           _PIR6bits 0004B4  
                                       _I2C1_Write 000000                                           _PIR7bits 0004B5  
                                   _I2C1_WriteRead 000000                                    ??_Task_register 050E  
                                   Task_register@i 0511                                  ??_PIN_MANAGER_IOC 0501  
                                        _toggleLed 143C                                          _vfpfcnvrt 06EA  
                              __end_of_UART1_Write 11E8                                       _Task_execute 094C  
                                 ?_SPI1_Initialize 0501                                        _INTCON0bits 0004D6  
                            ?_INTERRUPT_Initialize 0501                             __end_of_I2C1_StartSend 1732  
                           ??_I2C1_InterruptsClear 0501                           _INT0_SetInterruptHandler 16DC  
                           _uart1TxBufferRemaining 0557                                Task_register@reload 0509  
                             _I2C1_ErrorFlagsClear 16EA                                       _uart1RxCount 0554  
                                         __Hrparam 0000                                    ?_I2C1_ReadStart 0501  
                                     _Timer0_Start 000000                                       _Timer0_Write 000000  
                                       vfprintf@ap 05F7                                           __Lrparam 0000  
                                       vfprintf@fp 05F3                                      _I2C1_Callback 05BE  
                                    fp__Task_synch 0000                                         ?_toggleLed 0501  
                         __end_of_I2C1_BufferClear 16FE                                         ?_vfpfcnvrt 0548  
                             _I2C1_DefaultCallback 1748                                    ___aodiv@divisor 050F  
                                    _I2C1_IsBusCol 164A                                    ___aodiv@counter 0517  
                                ??_UART1_IsTxReady 0507                                      _I2C1_BusReset 12AE  
             fp__UART1_DefaultFramingErrorCallback 0000          __end_of_UART1_DefaultFramingErrorCallback 1742  
              ??_UART1_DefaultFramingErrorCallback 0501                 ?_UART1_DefaultFramingErrorCallback 0501  
                _UART1_DefaultFramingErrorCallback 1740                                         _T0CON0bits 00031A  
                    __end_of_I2C1_InterruptsEnable 168A                                       _I2C1CON0bits 000294  
                                     _I2C1CON1bits 000295                                           __pivt0x8 0008  
                             fp__Timer0_Initialize 0000                                      _I2C1_ErrorGet 000000  
                                         __ptext10 100A                                           __ptext11 11E8  
                                         __ptext20 0CFC                                           __ptext12 0E5E  
                                         __ptext21 14B2                                           __ptext13 153A  
                                         __ptext30 16CE                                           __ptext22 14D4  
                                         __ptext14 119E                                           __ptext31 16DC  
                                         __ptext23 14F6                                           __ptext15 15C6  
                                         __ptext40 1740                                           __ptext32 10E8  
                                         __ptext24 13BE                                           __ptext16 126E  
                                         __ptext41 1358                                           __ptext33 1676  
                                         __ptext25 16B2                                           __ptext17 0586  
                                         __ptext50 1726                                           __ptext42 0C2A  
                                         __ptext34 1518                                           __ptext26 15AC  
                                         __ptext18 027C                                           __ptext51 0EF4  
                                         __ptext43 1742                                           __ptext35 1576  
                                         __ptext27 0848                                           __ptext19 1558  
                                         __ptext60 1716                                           __ptext52 13E8  
                                         __ptext44 1744                                           __ptext36 0404  
                                         __ptext28 122C                                           __ptext61 1738  
                                         __ptext53 172C                                           __ptext45 16FE  
                                         __ptext37 1322                                           __ptext29 16C0  
                                         __ptext70 169E                                           __ptext62 1608  
                                         __ptext54 1706                                           __ptext46 138C  
                                         __ptext38 0A4C                                           __ptext71 171E  
                                         __ptext63 161E                                           __ptext55 1412  
                                         __ptext47 1746                                           __ptext39 173E  
                                         __ptext72 16EA                                           __ptext64 1634  
                                         __ptext56 0B40                                           __ptext48 15DC  
                                         __ptext73 16F4                                           __ptext65 164A  
                                         __ptext57 148C                                           __ptext49 15F2  
                                         __ptext74 0000                                           __ptext66 1660  
                                         __ptext58 1732                                           __ptext67 1748  
                                         __ptext59 170E                                           __ptext68 12AE  
                                         __ptext69 168A                                         _U1CON0bits 0002AB  
                                       _U1CON1bits 0002AC                        __end_of_I2C1_RestartDisable 1738  
                                  ?_I2C1_StartSend 0501                             ?_I2C1_CallbackRegister 0507  
                                _I2C1_AddrTransmit 1706                              ?_I2C1_ErrorFlagsClear 0501  
                                      ?_I2C1_Close 0501                                 ?_I2C1_AddrTransmit 0501  
                                    _I2C1_StopSend 148C                          _UART1_OverrunErrorHandler 05A6  
                                         isa$xinst 000000                                           _vfprintf 114A  
                         ?i2_I2C1_InterruptsEnable 0501                                ??_I2C1_AddrTransmit 0501  
               __end_of_INTERRUPT_InterruptManager 0586                         _INTERRUPT_InterruptManager 0404  
                            ?_I2C1_DefaultCallback 0501                                          printf@fmt 05F9  
                                   ?_I2C1_IsBusCol 0501                                        _UART1_Write 119E  
                     _INT1_DefaultInterruptHandler 000000                                   ___aomod@dividend 0507  
                               Task_register@delay 0507                                     ?_I2C1_BusReset 0501  
                                      _uart1RxHead 0556                                        _uart1TxHead 0559  
                                      _uart1RxTail 0555                                        _uart1TxTail 0558  
                           ??_INTERRUPT_Initialize 050A                            _Timer0_OverflowCallback 05AC  
                                         intlevel2 0000                          __end_of_I2C1_AddrTransmit 170E  
                                 ??_I2C1_ERROR_ISR 0502                            ?_PIN_MANAGER_Initialize 0501  
                                   ?_I2C1_StopSend 0501                                _uart1RxStatusBuffer 0560  
                                       _SPI1SCKPPS 00026A                                           printf@ap 0552  
                                       _UART1_Read 000000                                   _SPI1_BufferWrite 000000  
                             fp__UART1_TransmitISR 0000                                       _printCounter 1592  
                                  ___aomod@divisor 050F                                  Task_register@task 050B  
                                      ??_toggleLed 0507                                        ??_vfpfcnvrt 054E  
                                  ___aomod@counter 0517                                 fp__I2C1_Initialize 0000  
                         __end_of_CLOCK_Initialize 1592                                         _SPI1_Close 000000  
                                     _printWelcome 1084                   __end_of_INT1_SetInterruptHandler 16DC  
                               _Timer0_OverflowISR 1358               fp__UART1_DefaultOverrunErrorCallback 0000  
        __end_of_UART1_DefaultOverrunErrorCallback 1740                ??_UART1_DefaultOverrunErrorCallback 0501  
               ?_UART1_DefaultOverrunErrorCallback 0501                  _UART1_DefaultOverrunErrorCallback 173E  
                                _I2C1_DataTransmit 170E                           _UART1_TxInterruptHandler 05BB  
                               ?_I2C1_DataTransmit 0501                                  ?_I2C1_DataReceive 0501  
                                     ___aodiv@sign 0518                     __end_of_PIN_MANAGER_Initialize 094C  
                              ?_Timer0_OverflowISR 0501                             ??_I2C1_ErrorFlagsClear 0501  
             fp__UART1_ParityErrorCallbackRegister 0000          __end_of_UART1_ParityErrorCallbackRegister 14D4  
              ??_UART1_ParityErrorCallbackRegister 050A                 ?_UART1_ParityErrorCallbackRegister 0507  
                _UART1_ParityErrorCallbackRegister 14B2                                 ??_I2C1_DataReceive 0501  
                                  _PIN_MANAGER_IOC 1744                                _UART1_AutoBaudQuery 000000  
                              ??_I2C1_DataTransmit 0501                                       ___aomod@sign 0518  
                  __end_ofi2_I2C1_InterruptsEnable 169E                         __end_of_spi1_configuration FF5D  
